---
triple:          'arm64-apple-darwin'
binary-path:     cnet
relocations:
  - { offsetInCU: 0x58EB, offset: 0x58EB, size: 0x8, addend: 0x0, symName: __ZNSt3__124__put_character_sequenceB8ue170006IcNS_11char_traitsIcEEEERNS_13basic_ostreamIT_T0_EES7_PKS4_m, symObjAddr: 0x48C0, symBinAddr: 0x1000085E8, symSize: 0x1EC }
  - { offsetInCU: 0xA414, offset: 0xA414, size: 0x8, addend: 0x0, symName: __ZNSt3__17getlineB8ue170006IcNS_11char_traitsIcEENS_9allocatorIcEEEERNS_13basic_istreamIT_T0_EES9_RNS_12basic_stringIS6_S7_T1_EE, symObjAddr: 0x3C0, symBinAddr: 0x1000040E8, symSize: 0x5C }
  - { offsetInCU: 0xA7FE, offset: 0xA7FE, size: 0x8, addend: 0x0, symName: __ZNSt3__1neB8ue170006IPKNS_4pairIfiEEEEbRKNS_11__wrap_iterIT_EES9_, symObjAddr: 0x7AC, symBinAddr: 0x1000044D4, symSize: 0x34 }
  - { offsetInCU: 0xA9AC, offset: 0xA9AC, size: 0x8, addend: 0x0, symName: __ZNSt3__1lsB8ue170006INS_11char_traitsIcEEEERNS_13basic_ostreamIcT_EES6_PKc, symObjAddr: 0xC60, symBinAddr: 0x100004988, symSize: 0x48 }
  - { offsetInCU: 0xA9F2, offset: 0xA9F2, size: 0x8, addend: 0x0, symName: __ZNSt3__14endlB8ue170006IcNS_11char_traitsIcEEEERNS_13basic_ostreamIT_T0_EES7_, symObjAddr: 0xCD4, symBinAddr: 0x1000049FC, symSize: 0x58 }
  - { offsetInCU: 0xAA3D, offset: 0xAA3D, size: 0x8, addend: 0x0, symName: __ZNSt3__1plB8ue170006IcNS_11char_traitsIcEENS_9allocatorIcEEEENS_12basic_stringIT_T0_T1_EEOS9_PKS6_, symObjAddr: 0x15A8, symBinAddr: 0x1000052D0, symSize: 0x40 }
  - { offsetInCU: 0xAA95, offset: 0xAA95, size: 0x8, addend: 0x0, symName: __ZNSt3__1plB8ue170006IcNS_11char_traitsIcEENS_9allocatorIcEEEENS_12basic_stringIT_T0_T1_EEPKS6_OS9_, symObjAddr: 0x15E8, symBinAddr: 0x100005310, symSize: 0x44 }
  - { offsetInCU: 0xAAED, offset: 0xAAED, size: 0x8, addend: 0x0, symName: __ZNSt3__110accumulateB8ue170006INS_11__wrap_iterIPfEEdEET0_T_S5_S4_, symObjAddr: 0x1684, symBinAddr: 0x1000053AC, symSize: 0x74 }
  - { offsetInCU: 0xAB47, offset: 0xAB47, size: 0x8, addend: 0x0, symName: __ZNSt3__1eqB8ue170006IPKNS_4pairIfiEEEEbRKNS_11__wrap_iterIT_EES9_, symObjAddr: 0x193C, symBinAddr: 0x100005664, symSize: 0x48 }
  - { offsetInCU: 0xAB8A, offset: 0xAB8A, size: 0x8, addend: 0x0, symName: __ZNSt3__112__to_addressB8ue170006INS_4pairIfiEEEEPT_S4_, symObjAddr: 0x2098, symBinAddr: 0x100005DC0, symSize: 0x14 }
  - { offsetInCU: 0xABBF, offset: 0xABBF, size: 0x8, addend: 0x0, symName: __ZNSt3__119__libcpp_deallocateB8ue170006EPvmm, symObjAddr: 0x2148, symBinAddr: 0x100005E70, symSize: 0x30 }
  - { offsetInCU: 0xAC07, offset: 0xAC07, size: 0x8, addend: 0x0, symName: __ZNSt3__127__do_deallocate_handle_sizeB8ue170006IJEEEvPvmDpT_, symObjAddr: 0x2178, symBinAddr: 0x100005EA0, symSize: 0x28 }
  - { offsetInCU: 0xAC45, offset: 0xAC45, size: 0x8, addend: 0x0, symName: __ZNSt3__124__libcpp_operator_deleteB8ue170006IJPvEEEvDpT_, symObjAddr: 0x21A0, symBinAddr: 0x100005EC8, symSize: 0x24 }
  - { offsetInCU: 0xAC7A, offset: 0xAC7A, size: 0x8, addend: 0x0, symName: __ZNSt3__112__to_addressB8ue170006IKcEEPT_S3_, symObjAddr: 0x2430, symBinAddr: 0x100006158, symSize: 0x14 }
  - { offsetInCU: 0xACE2, offset: 0xACE2, size: 0x8, addend: 0x0, symName: __ZNSt3__17getlineB8ue170006IcNS_11char_traitsIcEENS_9allocatorIcEEEERNS_13basic_istreamIT_T0_EES9_RNS_12basic_stringIS6_S7_T1_EES6_, symObjAddr: 0x25A0, symBinAddr: 0x1000062C8, symSize: 0x238 }
  - { offsetInCU: 0xAFD5, offset: 0xAFD5, size: 0x8, addend: 0x0, symName: __ZNSt3__19use_facetB8ue170006INS_5ctypeIcEEEERKT_RKNS_6localeE, symObjAddr: 0x2E04, symBinAddr: 0x100006B2C, symSize: 0x2C }
  - { offsetInCU: 0xB4A2, offset: 0xB4A2, size: 0x8, addend: 0x0, symName: __ZNSt3__13maxB8ue170006ImEERKT_S3_S3_, symObjAddr: 0x3714, symBinAddr: 0x10000743C, symSize: 0x2C }
  - { offsetInCU: 0xB4E5, offset: 0xB4E5, size: 0x8, addend: 0x0, symName: __ZNSt3__13minB8ue170006ImEERKT_S3_S3_, symObjAddr: 0x3740, symBinAddr: 0x100007468, symSize: 0x2C }
  - { offsetInCU: 0xB729, offset: 0xB729, size: 0x8, addend: 0x0, symName: __ZNSt3__13minB8ue170006ImNS_6__lessIvvEEEERKT_S5_S5_T0_, symObjAddr: 0x37CC, symBinAddr: 0x1000074F4, symSize: 0x54 }
  - { offsetInCU: 0xB7C8, offset: 0xB7C8, size: 0x8, addend: 0x0, symName: __ZNSt3__120__throw_length_errorB8ue170006EPKc, symObjAddr: 0x38A8, symBinAddr: 0x1000075D0, symSize: 0x64 }
  - { offsetInCU: 0xB7F2, offset: 0xB7F2, size: 0x8, addend: 0x0, symName: __ZNSt3__13maxB8ue170006ImNS_6__lessIvvEEEERKT_S5_S5_T0_, symObjAddr: 0x398C, symBinAddr: 0x1000076B4, symSize: 0x54 }
  - { offsetInCU: 0xB84C, offset: 0xB84C, size: 0x8, addend: 0x0, symName: __ZNSt3__119__allocate_at_leastB8ue170006INS_9allocatorINS_4pairIfiEEEEEENS_19__allocation_resultINS_16allocator_traitsIT_E7pointerEEERS7_m, symObjAddr: 0x3AF0, symBinAddr: 0x100007818, symSize: 0x40 }
  - { offsetInCU: 0xB88F, offset: 0xB88F, size: 0x8, addend: 0x0, symName: __ZNSt3__117__libcpp_allocateB8ue170006Emm, symObjAddr: 0x3C74, symBinAddr: 0x10000799C, symSize: 0x28 }
  - { offsetInCU: 0xB8CC, offset: 0xB8CC, size: 0x8, addend: 0x0, symName: __ZNSt3__121__libcpp_operator_newB8ue170006IJmEEEPvDpT_, symObjAddr: 0x3C9C, symBinAddr: 0x1000079C4, symSize: 0x24 }
  - { offsetInCU: 0xB905, offset: 0xB905, size: 0x8, addend: 0x0, symName: __ZNSt3__142__uninitialized_allocator_move_if_noexceptB8ue170006INS_9allocatorINS_4pairIfiEEEENS_16reverse_iteratorIPS3_EES7_S7_EET2_RT_T0_T1_S8_, symObjAddr: 0x3D24, symBinAddr: 0x100007A4C, symSize: 0x12C }
  - { offsetInCU: 0xB9A5, offset: 0xB9A5, size: 0x8, addend: 0x0, symName: __ZNSt3__14swapB8ue170006IPNS_4pairIfiEEEENS_9enable_ifIXaasr21is_move_constructibleIT_EE5valuesr18is_move_assignableIS5_EE5valueEvE4typeERS5_S8_, symObjAddr: 0x3E9C, symBinAddr: 0x100007BC4, symSize: 0x3C }
  - { offsetInCU: 0xB9F6, offset: 0xB9F6, size: 0x8, addend: 0x0, symName: __ZNSt3__122__make_exception_guardB8ue170006INS_29_AllocatorDestroyRangeReverseINS_9allocatorINS_4pairIfiEEEENS_16reverse_iteratorIPS4_EEEEEENS_28__exception_guard_exceptionsIT_EESB_, symObjAddr: 0x3F84, symBinAddr: 0x100007CAC, symSize: 0x4C }
  - { offsetInCU: 0xBA2C, offset: 0xBA2C, size: 0x8, addend: 0x0, symName: __ZNSt3__1neB8ue170006IPNS_4pairIfiEES3_EEbRKNS_16reverse_iteratorIT_EERKNS4_IT0_EE, symObjAddr: 0x4014, symBinAddr: 0x100007D3C, symSize: 0x48 }
  - { offsetInCU: 0xBA78, offset: 0xBA78, size: 0x8, addend: 0x0, symName: __ZNSt3__112__to_addressB8ue170006INS_16reverse_iteratorIPNS_4pairIfiEEEEvEEu7__decayIDTclsr19__to_address_helperIT_EE6__callclsr3stdE7declvalIRKS6_EEEEES8_, symObjAddr: 0x4090, symBinAddr: 0x100007DB8, symSize: 0x24 }
  - { offsetInCU: 0xBAD7, offset: 0xBAD7, size: 0x8, addend: 0x0, symName: __ZNSt3__119__allocator_destroyB8ue170006INS_9allocatorINS_4pairIfiEEEENS_16reverse_iteratorINS5_IPS3_EEEES8_EEvRT_T0_T1_, symObjAddr: 0x4368, symBinAddr: 0x100008090, symSize: 0x70 }
  - { offsetInCU: 0xBB3C, offset: 0xBB3C, size: 0x8, addend: 0x0, symName: __ZNSt3__1neB8ue170006INS_16reverse_iteratorIPNS_4pairIfiEEEES5_EEbRKNS1_IT_EERKNS1_IT0_EE, symObjAddr: 0x4414, symBinAddr: 0x10000813C, symSize: 0x60 }
  - { offsetInCU: 0xBB88, offset: 0xBB88, size: 0x8, addend: 0x0, symName: __ZNSt3__112__to_addressB8ue170006INS_16reverse_iteratorINS1_IPNS_4pairIfiEEEEEEvEEu7__decayIDTclsr19__to_address_helperIT_EE6__callclsr3stdE7declvalIRKS7_EEEEES9_, symObjAddr: 0x4474, symBinAddr: 0x10000819C, symSize: 0x24 }
  - { offsetInCU: 0xBBE7, offset: 0xBBE7, size: 0x8, addend: 0x0, symName: __ZNSt3__116__pad_and_outputB8ue170006IcNS_11char_traitsIcEEEENS_19ostreambuf_iteratorIT_T0_EES6_PKS4_S8_S8_RNS_8ios_baseES4_, symObjAddr: 0x4AFC, symBinAddr: 0x100008824, symSize: 0x240 }
  - { offsetInCU: 0xBCB6, offset: 0xBCB6, size: 0x8, addend: 0x0, symName: __ZNSt3__118__constexpr_strlenB8ue170006EPKc, symObjAddr: 0x4F6C, symBinAddr: 0x100008C94, symSize: 0x24 }
  - { offsetInCU: 0xBCE2, offset: 0xBCE2, size: 0x8, addend: 0x0, symName: __ZNSt3__122__make_exception_guardB8ue170006INS_6vectorINS_12basic_stringIcNS_11char_traitsIcEENS_9allocatorIcEEEENS5_IS7_EEE16__destroy_vectorEEENS_28__exception_guard_exceptionsIT_EESC_, symObjAddr: 0x5144, symBinAddr: 0x100008E6C, symSize: 0x40 }
  - { offsetInCU: 0xBD17, offset: 0xBD17, size: 0x8, addend: 0x0, symName: __ZNSt3__119__allocate_at_leastB8ue170006INS_9allocatorINS_12basic_stringIcNS_11char_traitsIcEENS1_IcEEEEEEEENS_19__allocation_resultINS_16allocator_traitsIT_E7pointerEEERSA_m, symObjAddr: 0x5554, symBinAddr: 0x10000927C, symSize: 0x40 }
  - { offsetInCU: 0xBD5A, offset: 0xBD5A, size: 0x8, addend: 0x0, symName: __ZNSt3__112__to_addressB8ue170006INS_12basic_stringIcNS_11char_traitsIcEENS_9allocatorIcEEEEEEPT_S8_, symObjAddr: 0x589C, symBinAddr: 0x1000095C4, symSize: 0x14 }
  - { offsetInCU: 0xBD8F, offset: 0xBD8F, size: 0x8, addend: 0x0, symName: __ZNSt3__130__uninitialized_allocator_copyB8ue170006INS_9allocatorINS_12basic_stringIcNS_11char_traitsIcEENS1_IcEEEEEEPKS6_S9_PS6_EET2_RT_T0_T1_SB_, symObjAddr: 0x594C, symBinAddr: 0x100009674, symSize: 0x80 }
  - { offsetInCU: 0xBE2C, offset: 0xBE2C, size: 0x8, addend: 0x0, symName: __ZNSt3__114__unwrap_rangeB8ue170006IPKNS_12basic_stringIcNS_11char_traitsIcEENS_9allocatorIcEEEES8_EENS_4pairIT0_SA_EET_SC_, symObjAddr: 0x5A44, symBinAddr: 0x10000976C, symSize: 0x60 }
  - { offsetInCU: 0xBE78, offset: 0xBE78, size: 0x8, addend: 0x0, symName: __ZNSt3__135__uninitialized_allocator_copy_implB8ue170006INS_9allocatorINS_12basic_stringIcNS_11char_traitsIcEENS1_IcEEEEEEPKS6_S9_PS6_EET2_RT_T0_T1_SB_, symObjAddr: 0x5AA4, symBinAddr: 0x1000097CC, symSize: 0xF4 }
  - { offsetInCU: 0xBF16, offset: 0xBF16, size: 0x8, addend: 0x0, symName: __ZNSt3__113__unwrap_iterB8ue170006IPNS_12basic_stringIcNS_11char_traitsIcEENS_9allocatorIcEEEENS_18__unwrap_iter_implIS7_Lb1EEELi0EEEDTclsrT0_8__unwrapclsr3stdE7declvalIT_EEEESB_, symObjAddr: 0x5B98, symBinAddr: 0x1000098C0, symSize: 0x24 }
  - { offsetInCU: 0xBF5A, offset: 0xBF5A, size: 0x8, addend: 0x0, symName: __ZNSt3__113__rewrap_iterB8ue170006IPNS_12basic_stringIcNS_11char_traitsIcEENS_9allocatorIcEEEES7_NS_18__unwrap_iter_implIS7_Lb1EEEEET_SA_T0_, symObjAddr: 0x5BBC, symBinAddr: 0x1000098E4, symSize: 0x3C }
  - { offsetInCU: 0xBFAF, offset: 0xBFAF, size: 0x8, addend: 0x0, symName: __ZNSt3__19make_pairB8ue170006IPKNS_12basic_stringIcNS_11char_traitsIcEENS_9allocatorIcEEEES8_EENS_4pairINS_18__unwrap_ref_decayIT_E4typeENSA_IT0_E4typeEEEOSB_OSE_, symObjAddr: 0x5BF8, symBinAddr: 0x100009920, symSize: 0x38 }
  - { offsetInCU: 0xBFFE, offset: 0xBFFE, size: 0x8, addend: 0x0, symName: __ZNSt3__113__unwrap_iterB8ue170006IPKNS_12basic_stringIcNS_11char_traitsIcEENS_9allocatorIcEEEENS_18__unwrap_iter_implIS8_Lb1EEELi0EEEDTclsrT0_8__unwrapclsr3stdE7declvalIT_EEEESC_, symObjAddr: 0x5C30, symBinAddr: 0x100009958, symSize: 0x24 }
  - { offsetInCU: 0xC169, offset: 0xC169, size: 0x8, addend: 0x0, symName: __ZNSt3__112__to_addressB8ue170006IKNS_12basic_stringIcNS_11char_traitsIcEENS_9allocatorIcEEEEEEPT_S9_, symObjAddr: 0x5CE8, symBinAddr: 0x100009A10, symSize: 0x14 }
  - { offsetInCU: 0xC19E, offset: 0xC19E, size: 0x8, addend: 0x0, symName: __ZNSt3__122__make_exception_guardB8ue170006INS_29_AllocatorDestroyRangeReverseINS_9allocatorINS_12basic_stringIcNS_11char_traitsIcEENS2_IcEEEEEEPS7_EEEENS_28__exception_guard_exceptionsIT_EESC_, symObjAddr: 0x5CFC, symBinAddr: 0x100009A24, symSize: 0x4C }
  - { offsetInCU: 0xC1D4, offset: 0xC1D4, size: 0x8, addend: 0x0, symName: __ZNSt3__119__allocator_destroyB8ue170006INS_9allocatorINS_12basic_stringIcNS_11char_traitsIcEENS1_IcEEEEEENS_16reverse_iteratorIPS6_EESA_EEvRT_T0_T1_, symObjAddr: 0x5F8C, symBinAddr: 0x100009CB4, symSize: 0x70 }
  - { offsetInCU: 0xC237, offset: 0xC237, size: 0x8, addend: 0x0, symName: __ZNSt3__1neB8ue170006IPNS_12basic_stringIcNS_11char_traitsIcEENS_9allocatorIcEEEES7_EEbRKNS_16reverse_iteratorIT_EERKNS8_IT0_EE, symObjAddr: 0x6030, symBinAddr: 0x100009D58, symSize: 0x48 }
  - { offsetInCU: 0xC283, offset: 0xC283, size: 0x8, addend: 0x0, symName: __ZNSt3__112__to_addressB8ue170006INS_16reverse_iteratorIPNS_12basic_stringIcNS_11char_traitsIcEENS_9allocatorIcEEEEEEvEEu7__decayIDTclsr19__to_address_helperIT_EE6__callclsr3stdE7declvalIRKSA_EEEEESC_, symObjAddr: 0x60A4, symBinAddr: 0x100009DCC, symSize: 0x24 }
  - { offsetInCU: 0xC335, offset: 0xC335, size: 0x8, addend: 0x0, symName: __ZNSt3__122__make_exception_guardB8ue170006INS_6vectorIfNS_9allocatorIfEEE16__destroy_vectorEEENS_28__exception_guard_exceptionsIT_EES7_, symObjAddr: 0x6744, symBinAddr: 0x10000A46C, symSize: 0x40 }
  - { offsetInCU: 0xC36A, offset: 0xC36A, size: 0x8, addend: 0x0, symName: __ZNSt3__119__allocate_at_leastB8ue170006INS_9allocatorIfEEEENS_19__allocation_resultINS_16allocator_traitsIT_E7pointerEEERS5_m, symObjAddr: 0x6B30, symBinAddr: 0x10000A858, symSize: 0x40 }
  - { offsetInCU: 0xC3AD, offset: 0xC3AD, size: 0x8, addend: 0x0, symName: __ZNSt3__112__to_addressB8ue170006IfEEPT_S2_, symObjAddr: 0x6E54, symBinAddr: 0x10000AB7C, symSize: 0x14 }
  - { offsetInCU: 0xC3E2, offset: 0xC3E2, size: 0x8, addend: 0x0, symName: __ZNSt3__1neB8ue170006IPfEEbRKNS_11__wrap_iterIT_EES6_, symObjAddr: 0x73CC, symBinAddr: 0x10000B0F4, symSize: 0x34 }
  - { offsetInCU: 0xC425, offset: 0xC425, size: 0x8, addend: 0x0, symName: __ZNSt3__1eqB8ue170006IPfEEbRKNS_11__wrap_iterIT_EES6_, symObjAddr: 0x7438, symBinAddr: 0x10000B160, symSize: 0x48 }
  - { offsetInCU: 0xC8F4, offset: 0xC8F4, size: 0x8, addend: 0x0, symName: __ZSt28__throw_bad_array_new_lengthB8ue170006v, symObjAddr: 0x3C40, symBinAddr: 0x100007968, symSize: 0x34 }
  - { offsetInCU: 0xCE16, offset: 0xCE16, size: 0x8, addend: 0x0, symName: __ZNSt3__16vectorINS_4pairIfiEENS_9allocatorIS2_EEE26__swap_out_circular_bufferERNS_14__split_bufferIS2_RS4_EE, symObjAddr: 0x355C, symBinAddr: 0x100007284, symSize: 0x110 }
  - { offsetInCU: 0xCEA7, offset: 0xCEA7, size: 0x8, addend: 0x0, symName: __Z3powB8ue170006IfiENSt3__19enable_ifIXaasr3std13is_arithmeticIT_EE5valuesr3std13is_arithmeticIT0_EE5valueENS0_9__promoteIS2_S3_vEEE4type4typeES2_S3_, symObjAddr: 0x7F8, symBinAddr: 0x100004520, symSize: 0x3C }
  - { offsetInCU: 0xF580, offset: 0xF580, size: 0x8, addend: 0x0, symName: __Z12read_datasetRKNSt3__112basic_stringIcNS_11char_traitsIcEENS_9allocatorIcEEEE, symObjAddr: 0x0, symBinAddr: 0x100003D28, symSize: 0x1FC }
  - { offsetInCU: 0xF60C, offset: 0xF60C, size: 0x8, addend: 0x0, symName: __ZNSt3__16vectorINS_4pairIfiEENS_9allocatorIS2_EEEC1B8ue170006Ev, symObjAddr: 0x1FC, symBinAddr: 0x100003F24, symSize: 0x2C }
  - { offsetInCU: 0xF751, offset: 0xF751, size: 0x8, addend: 0x0, symName: __ZNSt3__114basic_ifstreamIcNS_11char_traitsIcEEEC1ERKNS_12basic_stringIcS2_NS_9allocatorIcEEEEj, symObjAddr: 0x228, symBinAddr: 0x100003F50, symSize: 0x16C }
  - { offsetInCU: 0xF79A, offset: 0xF79A, size: 0x8, addend: 0x0, symName: __ZNSt3__112basic_stringIcNS_11char_traitsIcEENS_9allocatorIcEEEC1B8ue170006Ev, symObjAddr: 0x394, symBinAddr: 0x1000040BC, symSize: 0x2C }
  - { offsetInCU: 0xF7C3, offset: 0xF7C3, size: 0x8, addend: 0x0, symName: __ZNKSt3__19basic_iosIcNS_11char_traitsIcEEEcvbB8ue170006Ev, symObjAddr: 0x41C, symBinAddr: 0x100004144, symSize: 0x2C }
  - { offsetInCU: 0xF838, offset: 0xF838, size: 0x8, addend: 0x0, symName: __ZNSt3__119basic_istringstreamIcNS_11char_traitsIcEENS_9allocatorIcEEEC1B8ue170006ERKNS_12basic_stringIcS2_S4_EEj, symObjAddr: 0x448, symBinAddr: 0x100004170, symSize: 0xFC }
  - { offsetInCU: 0xF87E, offset: 0xF87E, size: 0x8, addend: 0x0, symName: __ZNSt3__16vectorINS_4pairIfiEENS_9allocatorIS2_EEE12emplace_backIJRfRiEEEvDpOT_, symObjAddr: 0x544, symBinAddr: 0x10000426C, symSize: 0x78 }
  - { offsetInCU: 0xF8D8, offset: 0xF8D8, size: 0x8, addend: 0x0, symName: __ZNSt3__119basic_istringstreamIcNS_11char_traitsIcEENS_9allocatorIcEEED1Ev, symObjAddr: 0x5BC, symBinAddr: 0x1000042E4, symSize: 0x40 }
  - { offsetInCU: 0xF909, offset: 0xF909, size: 0x8, addend: 0x0, symName: __ZNSt3__114basic_ifstreamIcNS_11char_traitsIcEEED1Ev, symObjAddr: 0x5FC, symBinAddr: 0x100004324, symSize: 0x40 }
  - { offsetInCU: 0xF935, offset: 0xF935, size: 0x8, addend: 0x0, symName: __ZNSt3__16vectorINS_4pairIfiEENS_9allocatorIS2_EEED1B8ue170006Ev, symObjAddr: 0x63C, symBinAddr: 0x100004364, symSize: 0x2C }
  - { offsetInCU: 0xF95D, offset: 0xF95D, size: 0x8, addend: 0x0, symName: __Z12compute_rmseRKNSt3__16vectorINS_4pairIfiEENS_9allocatorIS2_EEEEff, symObjAddr: 0x668, symBinAddr: 0x100004390, symSize: 0xE4 }
  - { offsetInCU: 0xFA23, offset: 0xFA23, size: 0x8, addend: 0x0, symName: __ZNKSt3__16vectorINS_4pairIfiEENS_9allocatorIS2_EEE5beginB8ue170006Ev, symObjAddr: 0x74C, symBinAddr: 0x100004474, symSize: 0x30 }
  - { offsetInCU: 0xFA49, offset: 0xFA49, size: 0x8, addend: 0x0, symName: __ZNKSt3__16vectorINS_4pairIfiEENS_9allocatorIS2_EEE3endB8ue170006Ev, symObjAddr: 0x77C, symBinAddr: 0x1000044A4, symSize: 0x30 }
  - { offsetInCU: 0xFA70, offset: 0xFA70, size: 0x8, addend: 0x0, symName: __ZNKSt3__111__wrap_iterIPKNS_4pairIfiEEEdeB8ue170006Ev, symObjAddr: 0x7E0, symBinAddr: 0x100004508, symSize: 0x18 }
  - { offsetInCU: 0xFA95, offset: 0xFA95, size: 0x8, addend: 0x0, symName: __ZNSt3__111__wrap_iterIPKNS_4pairIfiEEEppB8ue170006Ev, symObjAddr: 0x834, symBinAddr: 0x10000455C, symSize: 0x20 }
  - { offsetInCU: 0xFABA, offset: 0xFABA, size: 0x8, addend: 0x0, symName: __ZNKSt3__16vectorINS_4pairIfiEENS_9allocatorIS2_EEE4sizeB8ue170006Ev, symObjAddr: 0x854, symBinAddr: 0x10000457C, symSize: 0x28 }
  - { offsetInCU: 0xFADF, offset: 0xFADF, size: 0x8, addend: 0x0, symName: __Z11train_modelRKNSt3__16vectorINS_4pairIfiEENS_9allocatorIS2_EEEERfS8_fi, symObjAddr: 0x87C, symBinAddr: 0x1000045A4, symSize: 0x188 }
  - { offsetInCU: 0xFC06, offset: 0xFC06, size: 0x8, addend: 0x0, symName: __Z16write_parametersRKNSt3__112basic_stringIcNS_11char_traitsIcEENS_9allocatorIcEEEEff, symObjAddr: 0xA04, symBinAddr: 0x10000472C, symSize: 0xF0 }
  - { offsetInCU: 0xFC73, offset: 0xFC73, size: 0x8, addend: 0x0, symName: __ZNSt3__114basic_ofstreamIcNS_11char_traitsIcEEEC1ERKNS_12basic_stringIcS2_NS_9allocatorIcEEEEj, symObjAddr: 0xAF4, symBinAddr: 0x10000481C, symSize: 0x16C }
  - { offsetInCU: 0xFCBC, offset: 0xFCBC, size: 0x8, addend: 0x0, symName: __ZNSt3__113basic_ostreamIcNS_11char_traitsIcEEElsB8ue170006EPFRS3_S4_E, symObjAddr: 0xCA8, symBinAddr: 0x1000049D0, symSize: 0x2C }
  - { offsetInCU: 0xFCF4, offset: 0xFCF4, size: 0x8, addend: 0x0, symName: __ZNSt3__114basic_ofstreamIcNS_11char_traitsIcEEED1Ev, symObjAddr: 0xD2C, symBinAddr: 0x100004A54, symSize: 0x40 }
  - { offsetInCU: 0xFD20, offset: 0xFD20, size: 0x8, addend: 0x0, symName: __Z15read_parametersRKNSt3__112basic_stringIcNS_11char_traitsIcEENS_9allocatorIcEEEERfS8_, symObjAddr: 0xD6C, symBinAddr: 0x100004A94, symSize: 0xC0 }
  - { offsetInCU: 0xFD73, offset: 0xFD73, size: 0x8, addend: 0x0, symName: _main, symObjAddr: 0xE2C, symBinAddr: 0x100004B54, symSize: 0x6E0 }
  - { offsetInCU: 0xFE86, offset: 0xFE86, size: 0x8, addend: 0x0, symName: __ZNSt3__112basic_stringIcNS_11char_traitsIcEENS_9allocatorIcEEEC1B8ue170006ILi0EEEPKc, symObjAddr: 0x150C, symBinAddr: 0x100005234, symSize: 0x34 }
  - { offsetInCU: 0xFEC4, offset: 0xFEC4, size: 0x8, addend: 0x0, symName: __ZNSt3__16vectorINS_12basic_stringIcNS_11char_traitsIcEENS_9allocatorIcEEEENS4_IS6_EEEC1B8ue170006ESt16initializer_listIS6_E, symObjAddr: 0x1540, symBinAddr: 0x100005268, symSize: 0x3C }
  - { offsetInCU: 0xFEFE, offset: 0xFEFE, size: 0x8, addend: 0x0, symName: __ZNSt3__16vectorINS_12basic_stringIcNS_11char_traitsIcEENS_9allocatorIcEEEENS4_IS6_EEEixB8ue170006Em, symObjAddr: 0x157C, symBinAddr: 0x1000052A4, symSize: 0x2C }
  - { offsetInCU: 0xFF34, offset: 0xFF34, size: 0x8, addend: 0x0, symName: __ZNSt3__16vectorIfNS_9allocatorIfEEEC1Em, symObjAddr: 0x162C, symBinAddr: 0x100005354, symSize: 0x34 }
  - { offsetInCU: 0xFF6E, offset: 0xFF6E, size: 0x8, addend: 0x0, symName: __ZNSt3__16vectorIfNS_9allocatorIfEEEixB8ue170006Em, symObjAddr: 0x1660, symBinAddr: 0x100005388, symSize: 0x24 }
  - { offsetInCU: 0xFFA3, offset: 0xFFA3, size: 0x8, addend: 0x0, symName: __ZNSt3__16vectorIfNS_9allocatorIfEEE5beginB8ue170006Ev, symObjAddr: 0x16F8, symBinAddr: 0x100005420, symSize: 0x30 }
  - { offsetInCU: 0xFFC9, offset: 0xFFC9, size: 0x8, addend: 0x0, symName: __ZNSt3__16vectorIfNS_9allocatorIfEEE3endB8ue170006Ev, symObjAddr: 0x1728, symBinAddr: 0x100005450, symSize: 0x30 }
  - { offsetInCU: 0xFFF0, offset: 0xFFF0, size: 0x8, addend: 0x0, symName: __ZNSt3__16vectorIfNS_9allocatorIfEEED1B8ue170006Ev, symObjAddr: 0x1758, symBinAddr: 0x100005480, symSize: 0x2C }
  - { offsetInCU: 0x10019, offset: 0x10019, size: 0x8, addend: 0x0, symName: __ZNSt3__16vectorINS_12basic_stringIcNS_11char_traitsIcEENS_9allocatorIcEEEENS4_IS6_EEED1B8ue170006Ev, symObjAddr: 0x1784, symBinAddr: 0x1000054AC, symSize: 0x2C }
  - { offsetInCU: 0x10042, offset: 0x10042, size: 0x8, addend: 0x0, symName: __ZNSt3__119basic_istringstreamIcNS_11char_traitsIcEENS_9allocatorIcEEED2Ev, symObjAddr: 0x17B0, symBinAddr: 0x1000054D8, symSize: 0x64 }
  - { offsetInCU: 0x1007A, offset: 0x1007A, size: 0x8, addend: 0x0, symName: __ZTv0_n24_NSt3__119basic_istringstreamIcNS_11char_traitsIcEENS_9allocatorIcEEED1Ev, symObjAddr: 0x1814, symBinAddr: 0x10000553C, symSize: 0x28 }
  - { offsetInCU: 0x10096, offset: 0x10096, size: 0x8, addend: 0x0, symName: __ZNSt3__115basic_stringbufIcNS_11char_traitsIcEENS_9allocatorIcEEED1Ev, symObjAddr: 0x183C, symBinAddr: 0x100005564, symSize: 0x2C }
  - { offsetInCU: 0x100C2, offset: 0x100C2, size: 0x8, addend: 0x0, symName: __ZNSt3__115basic_stringbufIcNS_11char_traitsIcEENS_9allocatorIcEEED2Ev, symObjAddr: 0x1868, symBinAddr: 0x100005590, symSize: 0x48 }
  - { offsetInCU: 0x100EE, offset: 0x100EE, size: 0x8, addend: 0x0, symName: __ZNSt3__114basic_ifstreamIcNS_11char_traitsIcEEED2Ev, symObjAddr: 0x18B0, symBinAddr: 0x1000055D8, symSize: 0x64 }
  - { offsetInCU: 0x10126, offset: 0x10126, size: 0x8, addend: 0x0, symName: __ZTv0_n24_NSt3__114basic_ifstreamIcNS_11char_traitsIcEEED1Ev, symObjAddr: 0x1914, symBinAddr: 0x10000563C, symSize: 0x28 }
  - { offsetInCU: 0x1013D, offset: 0x1013D, size: 0x8, addend: 0x0, symName: __ZNKSt3__111__wrap_iterIPKNS_4pairIfiEEE4baseB8ue170006Ev, symObjAddr: 0x1984, symBinAddr: 0x1000056AC, symSize: 0x18 }
  - { offsetInCU: 0x10162, offset: 0x10162, size: 0x8, addend: 0x0, symName: __ZNSt3__114basic_ofstreamIcNS_11char_traitsIcEEED2Ev, symObjAddr: 0x199C, symBinAddr: 0x1000056C4, symSize: 0x64 }
  - { offsetInCU: 0x1019A, offset: 0x1019A, size: 0x8, addend: 0x0, symName: __ZTv0_n24_NSt3__114basic_ofstreamIcNS_11char_traitsIcEEED1Ev, symObjAddr: 0x1A00, symBinAddr: 0x100005728, symSize: 0x28 }
  - { offsetInCU: 0x101B1, offset: 0x101B1, size: 0x8, addend: 0x0, symName: __ZNSt3__112basic_stringIcNS_11char_traitsIcEENS_9allocatorIcEEEC2B8ue170006Ev, symObjAddr: 0x1A28, symBinAddr: 0x100005750, symSize: 0x48 }
  - { offsetInCU: 0x101DF, offset: 0x101DF, size: 0x8, addend: 0x0, symName: __ZNSt3__117__compressed_pairINS_12basic_stringIcNS_11char_traitsIcEENS_9allocatorIcEEE5__repES5_EC1B8ue170006INS_18__default_init_tagESA_EEOT_OT0_, symObjAddr: 0x1A70, symBinAddr: 0x100005798, symSize: 0x3C }
  - { offsetInCU: 0x10236, offset: 0x10236, size: 0x8, addend: 0x0, symName: __ZNSt3__112basic_stringIcNS_11char_traitsIcEENS_9allocatorIcEEE14__default_initB8ue170006Ev, symObjAddr: 0x1AB8, symBinAddr: 0x1000057E0, symSize: 0x40 }
  - { offsetInCU: 0x1025B, offset: 0x1025B, size: 0x8, addend: 0x0, symName: __ZNSt3__117__compressed_pairINS_12basic_stringIcNS_11char_traitsIcEENS_9allocatorIcEEE5__repES5_EC2B8ue170006INS_18__default_init_tagESA_EEOT_OT0_, symObjAddr: 0x1AF8, symBinAddr: 0x100005820, symSize: 0x3C }
  - { offsetInCU: 0x102B2, offset: 0x102B2, size: 0x8, addend: 0x0, symName: __ZNSt3__122__compressed_pair_elemINS_12basic_stringIcNS_11char_traitsIcEENS_9allocatorIcEEE5__repELi0ELb0EEC2B8ue170006ENS_18__default_init_tagE, symObjAddr: 0x1B34, symBinAddr: 0x10000585C, symSize: 0x14 }
  - { offsetInCU: 0x102E6, offset: 0x102E6, size: 0x8, addend: 0x0, symName: __ZNSt3__122__compressed_pair_elemINS_9allocatorIcEELi1ELb1EEC2B8ue170006ENS_18__default_init_tagE, symObjAddr: 0x1B48, symBinAddr: 0x100005870, symSize: 0x2C }
  - { offsetInCU: 0x1031A, offset: 0x1031A, size: 0x8, addend: 0x0, symName: __ZNSt3__19allocatorIcEC2B8ue170006Ev, symObjAddr: 0x1B74, symBinAddr: 0x10000589C, symSize: 0x2C }
  - { offsetInCU: 0x10343, offset: 0x10343, size: 0x8, addend: 0x0, symName: __ZNSt3__116__non_trivial_ifILb1ENS_9allocatorIcEEEC2B8ue170006Ev, symObjAddr: 0x1BA0, symBinAddr: 0x1000058C8, symSize: 0x14 }
  - { offsetInCU: 0x1036C, offset: 0x1036C, size: 0x8, addend: 0x0, symName: __ZNSt3__117__compressed_pairINS_12basic_stringIcNS_11char_traitsIcEENS_9allocatorIcEEE5__repES5_E5firstB8ue170006Ev, symObjAddr: 0x1BB4, symBinAddr: 0x1000058DC, symSize: 0x24 }
  - { offsetInCU: 0x10391, offset: 0x10391, size: 0x8, addend: 0x0, symName: __ZNSt3__122__compressed_pair_elemINS_12basic_stringIcNS_11char_traitsIcEENS_9allocatorIcEEE5__repELi0ELb0EE5__getB8ue170006Ev, symObjAddr: 0x1BD8, symBinAddr: 0x100005900, symSize: 0x14 }
  - { offsetInCU: 0x103B6, offset: 0x103B6, size: 0x8, addend: 0x0, symName: __ZNSt3__16vectorINS_4pairIfiEENS_9allocatorIS2_EEEC2B8ue170006Ev, symObjAddr: 0x1BEC, symBinAddr: 0x100005914, symSize: 0x4C }
  - { offsetInCU: 0x103E4, offset: 0x103E4, size: 0x8, addend: 0x0, symName: __ZNSt3__117__compressed_pairIPNS_4pairIfiEENS_9allocatorIS2_EEEC1B8ue170006IDnNS_18__default_init_tagEEEOT_OT0_, symObjAddr: 0x1C38, symBinAddr: 0x100005960, symSize: 0x3C }
  - { offsetInCU: 0x1043B, offset: 0x1043B, size: 0x8, addend: 0x0, symName: __ZNSt3__117__compressed_pairIPNS_4pairIfiEENS_9allocatorIS2_EEEC2B8ue170006IDnNS_18__default_init_tagEEEOT_OT0_, symObjAddr: 0x1C74, symBinAddr: 0x10000599C, symSize: 0x40 }
  - { offsetInCU: 0x10492, offset: 0x10492, size: 0x8, addend: 0x0, symName: __ZNSt3__122__compressed_pair_elemIPNS_4pairIfiEELi0ELb0EEC2B8ue170006IDnvEEOT_, symObjAddr: 0x1CB4, symBinAddr: 0x1000059DC, symSize: 0x1C }
  - { offsetInCU: 0x104D3, offset: 0x104D3, size: 0x8, addend: 0x0, symName: __ZNSt3__122__compressed_pair_elemINS_9allocatorINS_4pairIfiEEEELi1ELb1EEC2B8ue170006ENS_18__default_init_tagE, symObjAddr: 0x1CD0, symBinAddr: 0x1000059F8, symSize: 0x2C }
  - { offsetInCU: 0x10507, offset: 0x10507, size: 0x8, addend: 0x0, symName: __ZNSt3__19allocatorINS_4pairIfiEEEC2B8ue170006Ev, symObjAddr: 0x1CFC, symBinAddr: 0x100005A24, symSize: 0x2C }
  - { offsetInCU: 0x10530, offset: 0x10530, size: 0x8, addend: 0x0, symName: __ZNSt3__116__non_trivial_ifILb1ENS_9allocatorINS_4pairIfiEEEEEC2B8ue170006Ev, symObjAddr: 0x1D28, symBinAddr: 0x100005A50, symSize: 0x14 }
  - { offsetInCU: 0x10559, offset: 0x10559, size: 0x8, addend: 0x0, symName: __ZNSt3__16vectorINS_4pairIfiEENS_9allocatorIS2_EEED2B8ue170006Ev, symObjAddr: 0x1D3C, symBinAddr: 0x100005A64, symSize: 0x44 }
  - { offsetInCU: 0x10582, offset: 0x10582, size: 0x8, addend: 0x0, symName: __ZNSt3__16vectorINS_4pairIfiEENS_9allocatorIS2_EEE16__destroy_vectorC1B8ue170006ERS5_, symObjAddr: 0x1D80, symBinAddr: 0x100005AA8, symSize: 0x34 }
  - { offsetInCU: 0x105BA, offset: 0x105BA, size: 0x8, addend: 0x0, symName: __ZNSt3__16vectorINS_4pairIfiEENS_9allocatorIS2_EEE16__destroy_vectorclB8ue170006Ev, symObjAddr: 0x1DB4, symBinAddr: 0x100005ADC, symSize: 0x90 }
  - { offsetInCU: 0x105DF, offset: 0x105DF, size: 0x8, addend: 0x0, symName: __ZNSt3__16vectorINS_4pairIfiEENS_9allocatorIS2_EEE16__destroy_vectorC2B8ue170006ERS5_, symObjAddr: 0x1E44, symBinAddr: 0x100005B6C, symSize: 0x20 }
  - { offsetInCU: 0x10617, offset: 0x10617, size: 0x8, addend: 0x0, symName: __ZNSt3__16vectorINS_4pairIfiEENS_9allocatorIS2_EEE7__clearB8ue170006Ev, symObjAddr: 0x1E64, symBinAddr: 0x100005B8C, symSize: 0x28 }
  - { offsetInCU: 0x1063C, offset: 0x1063C, size: 0x8, addend: 0x0, symName: __ZNKSt3__16vectorINS_4pairIfiEENS_9allocatorIS2_EEE17__annotate_deleteB8ue170006Ev, symObjAddr: 0x1E8C, symBinAddr: 0x100005BB4, symSize: 0xB8 }
  - { offsetInCU: 0x10661, offset: 0x10661, size: 0x8, addend: 0x0, symName: __ZNSt3__116allocator_traitsINS_9allocatorINS_4pairIfiEEEEE10deallocateB8ue170006ERS4_PS3_m, symObjAddr: 0x1F44, symBinAddr: 0x100005C6C, symSize: 0x34 }
  - { offsetInCU: 0x106A3, offset: 0x106A3, size: 0x8, addend: 0x0, symName: __ZNSt3__16vectorINS_4pairIfiEENS_9allocatorIS2_EEE7__allocB8ue170006Ev, symObjAddr: 0x1F78, symBinAddr: 0x100005CA0, symSize: 0x28 }
  - { offsetInCU: 0x106C8, offset: 0x106C8, size: 0x8, addend: 0x0, symName: __ZNKSt3__16vectorINS_4pairIfiEENS_9allocatorIS2_EEE8capacityB8ue170006Ev, symObjAddr: 0x1FA0, symBinAddr: 0x100005CC8, symSize: 0x40 }
  - { offsetInCU: 0x106ED, offset: 0x106ED, size: 0x8, addend: 0x0, symName: __ZNSt3__16vectorINS_4pairIfiEENS_9allocatorIS2_EEE22__base_destruct_at_endB8ue170006EPS2_, symObjAddr: 0x1FE0, symBinAddr: 0x100005D08, symSize: 0x8C }
  - { offsetInCU: 0x10730, offset: 0x10730, size: 0x8, addend: 0x0, symName: __ZNSt3__116allocator_traitsINS_9allocatorINS_4pairIfiEEEEE7destroyB8ue170006IS3_vEEvRS4_PT_, symObjAddr: 0x206C, symBinAddr: 0x100005D94, symSize: 0x2C }
  - { offsetInCU: 0x1076D, offset: 0x1076D, size: 0x8, addend: 0x0, symName: __ZNSt3__19allocatorINS_4pairIfiEEE7destroyB8ue170006EPS2_, symObjAddr: 0x20AC, symBinAddr: 0x100005DD4, symSize: 0x14 }
  - { offsetInCU: 0x107A0, offset: 0x107A0, size: 0x8, addend: 0x0, symName: __ZNKSt3__16vectorINS_4pairIfiEENS_9allocatorIS2_EEE31__annotate_contiguous_containerB8ue170006EPKvS7_S7_S7_, symObjAddr: 0x20C0, symBinAddr: 0x100005DE8, symSize: 0x20 }
  - { offsetInCU: 0x107F5, offset: 0x107F5, size: 0x8, addend: 0x0, symName: __ZNKSt3__16vectorINS_4pairIfiEENS_9allocatorIS2_EEE4dataB8ue170006Ev, symObjAddr: 0x20E0, symBinAddr: 0x100005E08, symSize: 0x28 }
  - { offsetInCU: 0x1081A, offset: 0x1081A, size: 0x8, addend: 0x0, symName: __ZNSt3__19allocatorINS_4pairIfiEEE10deallocateB8ue170006EPS2_m, symObjAddr: 0x2108, symBinAddr: 0x100005E30, symSize: 0x40 }
  - { offsetInCU: 0x1085B, offset: 0x1085B, size: 0x8, addend: 0x0, symName: __ZNSt3__117__compressed_pairIPNS_4pairIfiEENS_9allocatorIS2_EEE6secondB8ue170006Ev, symObjAddr: 0x21C4, symBinAddr: 0x100005EEC, symSize: 0x24 }
  - { offsetInCU: 0x10880, offset: 0x10880, size: 0x8, addend: 0x0, symName: __ZNSt3__122__compressed_pair_elemINS_9allocatorINS_4pairIfiEEEELi1ELb1EE5__getB8ue170006Ev, symObjAddr: 0x21E8, symBinAddr: 0x100005F10, symSize: 0x14 }
  - { offsetInCU: 0x108A5, offset: 0x108A5, size: 0x8, addend: 0x0, symName: __ZNKSt3__16vectorINS_4pairIfiEENS_9allocatorIS2_EEE9__end_capB8ue170006Ev, symObjAddr: 0x21FC, symBinAddr: 0x100005F24, symSize: 0x28 }
  - { offsetInCU: 0x108CA, offset: 0x108CA, size: 0x8, addend: 0x0, symName: __ZNKSt3__117__compressed_pairIPNS_4pairIfiEENS_9allocatorIS2_EEE5firstB8ue170006Ev, symObjAddr: 0x2224, symBinAddr: 0x100005F4C, symSize: 0x24 }
  - { offsetInCU: 0x108EF, offset: 0x108EF, size: 0x8, addend: 0x0, symName: __ZNKSt3__122__compressed_pair_elemIPNS_4pairIfiEELi0ELb0EE5__getB8ue170006Ev, symObjAddr: 0x2248, symBinAddr: 0x100005F70, symSize: 0x14 }
  - { offsetInCU: 0x10914, offset: 0x10914, size: 0x8, addend: 0x0, symName: __ZNSt3__19basic_iosIcNS_11char_traitsIcEEEC2B8ue170006Ev, symObjAddr: 0x225C, symBinAddr: 0x100005F84, symSize: 0x44 }
  - { offsetInCU: 0x1093D, offset: 0x1093D, size: 0x8, addend: 0x0, symName: __ZNSt3__113basic_istreamIcNS_11char_traitsIcEEEC2B8ue170006EPNS_15basic_streambufIcS2_EE, symObjAddr: 0x22A0, symBinAddr: 0x100005FC8, symSize: 0x64 }
  - { offsetInCU: 0x1097F, offset: 0x1097F, size: 0x8, addend: 0x0, symName: __ZNSt3__113basic_filebufIcNS_11char_traitsIcEEE4openERKNS_12basic_stringIcS2_NS_9allocatorIcEEEEj, symObjAddr: 0x2304, symBinAddr: 0x10000602C, symSize: 0x44 }
  - { offsetInCU: 0x109C2, offset: 0x109C2, size: 0x8, addend: 0x0, symName: __ZNSt3__19basic_iosIcNS_11char_traitsIcEEE8setstateB8ue170006Ej, symObjAddr: 0x2348, symBinAddr: 0x100006070, symSize: 0x2C }
  - { offsetInCU: 0x109F6, offset: 0x109F6, size: 0x8, addend: 0x0, symName: __ZNSt3__18ios_baseC2B8ue170006Ev, symObjAddr: 0x2374, symBinAddr: 0x10000609C, symSize: 0x24 }
  - { offsetInCU: 0x10A1E, offset: 0x10A1E, size: 0x8, addend: 0x0, symName: __ZNSt3__19basic_iosIcNS_11char_traitsIcEEE4initB8ue170006EPNS_15basic_streambufIcS2_EE, symObjAddr: 0x2398, symBinAddr: 0x1000060C0, symSize: 0x44 }
  - { offsetInCU: 0x10A54, offset: 0x10A54, size: 0x8, addend: 0x0, symName: __ZNSt3__111char_traitsIcE3eofB8ue170006Ev, symObjAddr: 0x23DC, symBinAddr: 0x100006104, symSize: 0x8 }
  - { offsetInCU: 0x10A68, offset: 0x10A68, size: 0x8, addend: 0x0, symName: __ZNKSt3__112basic_stringIcNS_11char_traitsIcEENS_9allocatorIcEEE5c_strB8ue170006Ev, symObjAddr: 0x23E4, symBinAddr: 0x10000610C, symSize: 0x24 }
  - { offsetInCU: 0x10A8D, offset: 0x10A8D, size: 0x8, addend: 0x0, symName: __ZNKSt3__112basic_stringIcNS_11char_traitsIcEENS_9allocatorIcEEE4dataB8ue170006Ev, symObjAddr: 0x2408, symBinAddr: 0x100006130, symSize: 0x28 }
  - { offsetInCU: 0x10AB2, offset: 0x10AB2, size: 0x8, addend: 0x0, symName: __ZNKSt3__112basic_stringIcNS_11char_traitsIcEENS_9allocatorIcEEE13__get_pointerB8ue170006Ev, symObjAddr: 0x2444, symBinAddr: 0x10000616C, symSize: 0x54 }
  - { offsetInCU: 0x10AD7, offset: 0x10AD7, size: 0x8, addend: 0x0, symName: __ZNKSt3__112basic_stringIcNS_11char_traitsIcEENS_9allocatorIcEEE9__is_longB8ue170006Ev, symObjAddr: 0x2498, symBinAddr: 0x1000061C0, symSize: 0x38 }
  - { offsetInCU: 0x10AFC, offset: 0x10AFC, size: 0x8, addend: 0x0, symName: __ZNKSt3__112basic_stringIcNS_11char_traitsIcEENS_9allocatorIcEEE18__get_long_pointerB8ue170006Ev, symObjAddr: 0x24D0, symBinAddr: 0x1000061F8, symSize: 0x28 }
  - { offsetInCU: 0x10B21, offset: 0x10B21, size: 0x8, addend: 0x0, symName: __ZNKSt3__112basic_stringIcNS_11char_traitsIcEENS_9allocatorIcEEE19__get_short_pointerB8ue170006Ev, symObjAddr: 0x24F8, symBinAddr: 0x100006220, symSize: 0x28 }
  - { offsetInCU: 0x10B46, offset: 0x10B46, size: 0x8, addend: 0x0, symName: __ZNKSt3__117__compressed_pairINS_12basic_stringIcNS_11char_traitsIcEENS_9allocatorIcEEE5__repES5_E5firstB8ue170006Ev, symObjAddr: 0x2520, symBinAddr: 0x100006248, symSize: 0x24 }
  - { offsetInCU: 0x10B6B, offset: 0x10B6B, size: 0x8, addend: 0x0, symName: __ZNKSt3__122__compressed_pair_elemINS_12basic_stringIcNS_11char_traitsIcEENS_9allocatorIcEEE5__repELi0ELb0EE5__getB8ue170006Ev, symObjAddr: 0x2544, symBinAddr: 0x10000626C, symSize: 0x14 }
  - { offsetInCU: 0x10B90, offset: 0x10B90, size: 0x8, addend: 0x0, symName: __ZNSt3__114pointer_traitsIPKcE10pointer_toB8ue170006ERS1_, symObjAddr: 0x2558, symBinAddr: 0x100006280, symSize: 0x14 }
  - { offsetInCU: 0x10BB2, offset: 0x10BB2, size: 0x8, addend: 0x0, symName: __ZNSt3__18ios_base8setstateB8ue170006Ej, symObjAddr: 0x256C, symBinAddr: 0x100006294, symSize: 0x34 }
  - { offsetInCU: 0x10BE7, offset: 0x10BE7, size: 0x8, addend: 0x0, symName: __ZNKSt3__19basic_iosIcNS_11char_traitsIcEEE5widenB8ue170006Ec, symObjAddr: 0x27D8, symBinAddr: 0x100006500, symSize: 0x84 }
  - { offsetInCU: 0x10C3B, offset: 0x10C3B, size: 0x8, addend: 0x0, symName: __ZNKSt3__113basic_istreamIcNS_11char_traitsIcEEE6sentrycvbB8ue170006Ev, symObjAddr: 0x285C, symBinAddr: 0x100006584, symSize: 0x1C }
  - { offsetInCU: 0x10C5F, offset: 0x10C5F, size: 0x8, addend: 0x0, symName: __ZNSt3__112basic_stringIcNS_11char_traitsIcEENS_9allocatorIcEEE5clearB8ue170006Ev, symObjAddr: 0x2878, symBinAddr: 0x1000065A0, symSize: 0x78 }
  - { offsetInCU: 0x10C85, offset: 0x10C85, size: 0x8, addend: 0x0, symName: __ZNKSt3__19basic_iosIcNS_11char_traitsIcEEE5rdbufB8ue170006Ev, symObjAddr: 0x28F0, symBinAddr: 0x100006618, symSize: 0x24 }
  - { offsetInCU: 0x10CAC, offset: 0x10CAC, size: 0x8, addend: 0x0, symName: __ZNSt3__115basic_streambufIcNS_11char_traitsIcEEE6sbumpcB8ue170006Ev, symObjAddr: 0x2914, symBinAddr: 0x10000663C, symSize: 0x78 }
  - { offsetInCU: 0x10CD1, offset: 0x10CD1, size: 0x8, addend: 0x0, symName: __ZNSt3__111char_traitsIcE11eq_int_typeB8ue170006Eii, symObjAddr: 0x298C, symBinAddr: 0x1000066B4, symSize: 0x28 }
  - { offsetInCU: 0x10D04, offset: 0x10D04, size: 0x8, addend: 0x0, symName: __ZNSt3__111char_traitsIcE12to_char_typeB8ue170006Ei, symObjAddr: 0x29B4, symBinAddr: 0x1000066DC, symSize: 0x18 }
  - { offsetInCU: 0x10D27, offset: 0x10D27, size: 0x8, addend: 0x0, symName: __ZNSt3__111char_traitsIcE2eqEcc, symObjAddr: 0x29CC, symBinAddr: 0x1000066F4, symSize: 0x28 }
  - { offsetInCU: 0x10D58, offset: 0x10D58, size: 0x8, addend: 0x0, symName: __ZNKSt3__112basic_stringIcNS_11char_traitsIcEENS_9allocatorIcEEE4sizeB8ue170006Ev, symObjAddr: 0x29F4, symBinAddr: 0x10000671C, symSize: 0x54 }
  - { offsetInCU: 0x10D7D, offset: 0x10D7D, size: 0x8, addend: 0x0, symName: __ZNKSt3__112basic_stringIcNS_11char_traitsIcEENS_9allocatorIcEEE8max_sizeB8ue170006Ev, symObjAddr: 0x2A48, symBinAddr: 0x100006770, symSize: 0xAC }
  - { offsetInCU: 0x10DCF, offset: 0x10DCF, size: 0x8, addend: 0x0, symName: __ZNSt3__18ios_base18__setstate_nothrowB8ue170006Ej, symObjAddr: 0x2AF4, symBinAddr: 0x10000681C, symSize: 0x64 }
  - { offsetInCU: 0x10E03, offset: 0x10E03, size: 0x8, addend: 0x0, symName: __ZNKSt3__19basic_iosIcNS_11char_traitsIcEEE10exceptionsB8ue170006Ev, symObjAddr: 0x2B58, symBinAddr: 0x100006880, symSize: 0x24 }
  - { offsetInCU: 0x10E28, offset: 0x10E28, size: 0x8, addend: 0x0, symName: __ZNSt3__111char_traitsIcE6assignB8ue170006ERcRKc, symObjAddr: 0x2B7C, symBinAddr: 0x1000068A4, symSize: 0x24 }
  - { offsetInCU: 0x10E59, offset: 0x10E59, size: 0x8, addend: 0x0, symName: __ZNSt3__112basic_stringIcNS_11char_traitsIcEENS_9allocatorIcEEE18__get_long_pointerB8ue170006Ev, symObjAddr: 0x2BA0, symBinAddr: 0x1000068C8, symSize: 0x28 }
  - { offsetInCU: 0x10E7E, offset: 0x10E7E, size: 0x8, addend: 0x0, symName: __ZNSt3__112basic_stringIcNS_11char_traitsIcEENS_9allocatorIcEEE15__set_long_sizeB8ue170006Em, symObjAddr: 0x2BC8, symBinAddr: 0x1000068F0, symSize: 0x38 }
  - { offsetInCU: 0x10EB2, offset: 0x10EB2, size: 0x8, addend: 0x0, symName: __ZNSt3__112basic_stringIcNS_11char_traitsIcEENS_9allocatorIcEEE19__get_short_pointerB8ue170006Ev, symObjAddr: 0x2C00, symBinAddr: 0x100006928, symSize: 0x28 }
  - { offsetInCU: 0x10ED7, offset: 0x10ED7, size: 0x8, addend: 0x0, symName: __ZNSt3__112basic_stringIcNS_11char_traitsIcEENS_9allocatorIcEEE16__set_short_sizeB8ue170006Em, symObjAddr: 0x2C28, symBinAddr: 0x100006950, symSize: 0x78 }
  - { offsetInCU: 0x10F0B, offset: 0x10F0B, size: 0x8, addend: 0x0, symName: __ZNSt3__114pointer_traitsIPcE10pointer_toB8ue170006ERc, symObjAddr: 0x2CA0, symBinAddr: 0x1000069C8, symSize: 0x14 }
  - { offsetInCU: 0x10F2E, offset: 0x10F2E, size: 0x8, addend: 0x0, symName: __ZNKSt3__18ios_base5rdbufB8ue170006Ev, symObjAddr: 0x2CB4, symBinAddr: 0x1000069DC, symSize: 0x18 }
  - { offsetInCU: 0x10F53, offset: 0x10F53, size: 0x8, addend: 0x0, symName: __ZNSt3__111char_traitsIcE11to_int_typeB8ue170006Ec, symObjAddr: 0x2CCC, symBinAddr: 0x1000069F4, symSize: 0x14 }
  - { offsetInCU: 0x10F77, offset: 0x10F77, size: 0x8, addend: 0x0, symName: __ZNKSt3__112basic_stringIcNS_11char_traitsIcEENS_9allocatorIcEEE15__get_long_sizeB8ue170006Ev, symObjAddr: 0x2CE0, symBinAddr: 0x100006A08, symSize: 0x28 }
  - { offsetInCU: 0x10F9C, offset: 0x10F9C, size: 0x8, addend: 0x0, symName: __ZNKSt3__112basic_stringIcNS_11char_traitsIcEENS_9allocatorIcEEE16__get_short_sizeB8ue170006Ev, symObjAddr: 0x2D08, symBinAddr: 0x100006A30, symSize: 0x34 }
  - { offsetInCU: 0x10FCB, offset: 0x10FCB, size: 0x8, addend: 0x0, symName: __ZNSt3__116allocator_traitsINS_9allocatorIcEEE8max_sizeB8ue170006IS2_vEEmRKS2_, symObjAddr: 0x2D3C, symBinAddr: 0x100006A64, symSize: 0x24 }
  - { offsetInCU: 0x10FF9, offset: 0x10FF9, size: 0x8, addend: 0x0, symName: __ZNKSt3__112basic_stringIcNS_11char_traitsIcEENS_9allocatorIcEEE7__allocB8ue170006Ev, symObjAddr: 0x2D60, symBinAddr: 0x100006A88, symSize: 0x24 }
  - { offsetInCU: 0x1101E, offset: 0x1101E, size: 0x8, addend: 0x0, symName: __ZNSt3__114numeric_limitsImE3maxB8ue170006Ev, symObjAddr: 0x2D84, symBinAddr: 0x100006AAC, symSize: 0x14 }
  - { offsetInCU: 0x11032, offset: 0x11032, size: 0x8, addend: 0x0, symName: __ZNKSt3__19allocatorIcE8max_sizeB8ue170006Ev, symObjAddr: 0x2D98, symBinAddr: 0x100006AC0, symSize: 0x14 }
  - { offsetInCU: 0x11057, offset: 0x11057, size: 0x8, addend: 0x0, symName: __ZNKSt3__117__compressed_pairINS_12basic_stringIcNS_11char_traitsIcEENS_9allocatorIcEEE5__repES5_E6secondB8ue170006Ev, symObjAddr: 0x2DAC, symBinAddr: 0x100006AD4, symSize: 0x24 }
  - { offsetInCU: 0x1107C, offset: 0x1107C, size: 0x8, addend: 0x0, symName: __ZNKSt3__122__compressed_pair_elemINS_9allocatorIcEELi1ELb1EE5__getB8ue170006Ev, symObjAddr: 0x2DD0, symBinAddr: 0x100006AF8, symSize: 0x14 }
  - { offsetInCU: 0x110A1, offset: 0x110A1, size: 0x8, addend: 0x0, symName: __ZNSt3__123__libcpp_numeric_limitsImLb1EE3maxB8ue170006Ev, symObjAddr: 0x2DE4, symBinAddr: 0x100006B0C, symSize: 0x8 }
  - { offsetInCU: 0x110B5, offset: 0x110B5, size: 0x8, addend: 0x0, symName: __ZNKSt3__18ios_base10exceptionsB8ue170006Ev, symObjAddr: 0x2DEC, symBinAddr: 0x100006B14, symSize: 0x18 }
  - { offsetInCU: 0x11113, offset: 0x11113, size: 0x8, addend: 0x0, symName: __ZNKSt3__15ctypeIcE5widenB8ue170006Ec, symObjAddr: 0x2E30, symBinAddr: 0x100006B58, symSize: 0x38 }
  - { offsetInCU: 0x11147, offset: 0x11147, size: 0x8, addend: 0x0, symName: __ZNKSt3__19basic_iosIcNS_11char_traitsIcEEE4failB8ue170006Ev, symObjAddr: 0x2E68, symBinAddr: 0x100006B90, symSize: 0x28 }
  - { offsetInCU: 0x1116C, offset: 0x1116C, size: 0x8, addend: 0x0, symName: __ZNKSt3__18ios_base4failB8ue170006Ev, symObjAddr: 0x2E90, symBinAddr: 0x100006BB8, symSize: 0x28 }
  - { offsetInCU: 0x11193, offset: 0x11193, size: 0x8, addend: 0x0, symName: __ZNSt3__115basic_stringbufIcNS_11char_traitsIcEENS_9allocatorIcEEEC1B8ue170006ERKNS_12basic_stringIcS2_S4_EEj, symObjAddr: 0x2EB8, symBinAddr: 0x100006BE0, symSize: 0x3C }
  - { offsetInCU: 0x111DA, offset: 0x111DA, size: 0x8, addend: 0x0, symName: __ZNSt3__115basic_stringbufIcNS_11char_traitsIcEENS_9allocatorIcEEEC2B8ue170006ERKNS_12basic_stringIcS2_S4_EEj, symObjAddr: 0x2EF4, symBinAddr: 0x100006C1C, symSize: 0xB4 }
  - { offsetInCU: 0x11221, offset: 0x11221, size: 0x8, addend: 0x0, symName: __ZNKSt3__112basic_stringIcNS_11char_traitsIcEENS_9allocatorIcEEE13get_allocatorB8ue170006Ev, symObjAddr: 0x2FA8, symBinAddr: 0x100006CD0, symSize: 0x24 }
  - { offsetInCU: 0x11246, offset: 0x11246, size: 0x8, addend: 0x0, symName: __ZNSt3__112basic_stringIcNS_11char_traitsIcEENS_9allocatorIcEEEC1B8ue170006ERKS4_, symObjAddr: 0x2FCC, symBinAddr: 0x100006CF4, symSize: 0x34 }
  - { offsetInCU: 0x1127E, offset: 0x1127E, size: 0x8, addend: 0x0, symName: __ZNSt3__112basic_stringIcNS_11char_traitsIcEENS_9allocatorIcEEEC2B8ue170006ERKS4_, symObjAddr: 0x3000, symBinAddr: 0x100006D28, symSize: 0x48 }
  - { offsetInCU: 0x112B6, offset: 0x112B6, size: 0x8, addend: 0x0, symName: __ZNSt3__117__compressed_pairINS_12basic_stringIcNS_11char_traitsIcEENS_9allocatorIcEEE5__repES5_EC1B8ue170006INS_18__default_init_tagERKS5_EEOT_OT0_, symObjAddr: 0x3048, symBinAddr: 0x100006D70, symSize: 0x3C }
  - { offsetInCU: 0x1130D, offset: 0x1130D, size: 0x8, addend: 0x0, symName: __ZNSt3__117__compressed_pairINS_12basic_stringIcNS_11char_traitsIcEENS_9allocatorIcEEE5__repES5_EC2B8ue170006INS_18__default_init_tagERKS5_EEOT_OT0_, symObjAddr: 0x3084, symBinAddr: 0x100006DAC, symSize: 0x40 }
  - { offsetInCU: 0x11364, offset: 0x11364, size: 0x8, addend: 0x0, symName: __ZNSt3__122__compressed_pair_elemINS_9allocatorIcEELi1ELb1EEC2B8ue170006IRKS2_vEEOT_, symObjAddr: 0x30C4, symBinAddr: 0x100006DEC, symSize: 0x18 }
  - { offsetInCU: 0x113A5, offset: 0x113A5, size: 0x8, addend: 0x0, symName: __ZNSt3__16vectorINS_4pairIfiEENS_9allocatorIS2_EEE9__end_capB8ue170006Ev, symObjAddr: 0x30DC, symBinAddr: 0x100006E04, symSize: 0x28 }
  - { offsetInCU: 0x113CA, offset: 0x113CA, size: 0x8, addend: 0x0, symName: __ZNSt3__16vectorINS_4pairIfiEENS_9allocatorIS2_EEE22__construct_one_at_endB8ue170006IJRfRiEEEvDpOT_, symObjAddr: 0x3104, symBinAddr: 0x100006E2C, symSize: 0x98 }
  - { offsetInCU: 0x1142B, offset: 0x1142B, size: 0x8, addend: 0x0, symName: __ZNSt3__16vectorINS_4pairIfiEENS_9allocatorIS2_EEE24__emplace_back_slow_pathIJRfRiEEEvDpOT_, symObjAddr: 0x319C, symBinAddr: 0x100006EC4, symSize: 0xE0 }
  - { offsetInCU: 0x1149E, offset: 0x1149E, size: 0x8, addend: 0x0, symName: __ZNSt3__117__compressed_pairIPNS_4pairIfiEENS_9allocatorIS2_EEE5firstB8ue170006Ev, symObjAddr: 0x327C, symBinAddr: 0x100006FA4, symSize: 0x24 }
  - { offsetInCU: 0x114C3, offset: 0x114C3, size: 0x8, addend: 0x0, symName: __ZNSt3__122__compressed_pair_elemIPNS_4pairIfiEELi0ELb0EE5__getB8ue170006Ev, symObjAddr: 0x32A0, symBinAddr: 0x100006FC8, symSize: 0x14 }
  - { offsetInCU: 0x11501, offset: 0x11501, size: 0x8, addend: 0x0, symName: __ZNSt3__16vectorINS_4pairIfiEENS_9allocatorIS2_EEE21_ConstructTransactionC1B8ue170006ERS5_m, symObjAddr: 0x32B4, symBinAddr: 0x100006FDC, symSize: 0x3C }
  - { offsetInCU: 0x11548, offset: 0x11548, size: 0x8, addend: 0x0, symName: __ZNSt3__116allocator_traitsINS_9allocatorINS_4pairIfiEEEEE9constructB8ue170006IS3_JRfRiEvEEvRS4_PT_DpOT0_, symObjAddr: 0x32F0, symBinAddr: 0x100007018, symSize: 0x3C }
  - { offsetInCU: 0x115B3, offset: 0x115B3, size: 0x8, addend: 0x0, symName: __ZNSt3__16vectorINS_4pairIfiEENS_9allocatorIS2_EEE21_ConstructTransactionD1B8ue170006Ev, symObjAddr: 0x332C, symBinAddr: 0x100007054, symSize: 0x2C }
  - { offsetInCU: 0x115DC, offset: 0x115DC, size: 0x8, addend: 0x0, symName: __ZNSt3__16vectorINS_4pairIfiEENS_9allocatorIS2_EEE21_ConstructTransactionC2B8ue170006ERS5_m, symObjAddr: 0x3358, symBinAddr: 0x100007080, symSize: 0x44 }
  - { offsetInCU: 0x11623, offset: 0x11623, size: 0x8, addend: 0x0, symName: __ZNSt3__19allocatorINS_4pairIfiEEE9constructB8ue170006IS2_JRfRiEEEvPT_DpOT0_, symObjAddr: 0x339C, symBinAddr: 0x1000070C4, symSize: 0x38 }
  - { offsetInCU: 0x1168B, offset: 0x1168B, size: 0x8, addend: 0x0, symName: __ZNSt3__14pairIfiEC1B8ue170006IRfRiLPv0EEEOT_OT0_, symObjAddr: 0x33D4, symBinAddr: 0x1000070FC, symSize: 0x3C }
  - { offsetInCU: 0x116E8, offset: 0x116E8, size: 0x8, addend: 0x0, symName: __ZNSt3__14pairIfiEC2B8ue170006IRfRiLPv0EEEOT_OT0_, symObjAddr: 0x3410, symBinAddr: 0x100007138, symSize: 0x34 }
  - { offsetInCU: 0x11745, offset: 0x11745, size: 0x8, addend: 0x0, symName: __ZNSt3__16vectorINS_4pairIfiEENS_9allocatorIS2_EEE21_ConstructTransactionD2B8ue170006Ev, symObjAddr: 0x3444, symBinAddr: 0x10000716C, symSize: 0x20 }
  - { offsetInCU: 0x1176D, offset: 0x1176D, size: 0x8, addend: 0x0, symName: __ZNKSt3__16vectorINS_4pairIfiEENS_9allocatorIS2_EEE11__recommendB8ue170006Em, symObjAddr: 0x3464, symBinAddr: 0x10000718C, symSize: 0xB4 }
  - { offsetInCU: 0x117C1, offset: 0x117C1, size: 0x8, addend: 0x0, symName: __ZNSt3__114__split_bufferINS_4pairIfiEERNS_9allocatorIS2_EEEC1EmmS5_, symObjAddr: 0x3518, symBinAddr: 0x100007240, symSize: 0x44 }
  - { offsetInCU: 0x11816, offset: 0x11816, size: 0x8, addend: 0x0, symName: __ZNSt3__114__split_bufferINS_4pairIfiEERNS_9allocatorIS2_EEED1Ev, symObjAddr: 0x366C, symBinAddr: 0x100007394, symSize: 0x2C }
  - { offsetInCU: 0x11840, offset: 0x11840, size: 0x8, addend: 0x0, symName: __ZNKSt3__16vectorINS_4pairIfiEENS_9allocatorIS2_EEE8max_sizeEv, symObjAddr: 0x3698, symBinAddr: 0x1000073C0, symSize: 0x60 }
  - { offsetInCU: 0x11867, offset: 0x11867, size: 0x8, addend: 0x0, symName: __ZNKSt3__16vectorINS_4pairIfiEENS_9allocatorIS2_EEE20__throw_length_errorB8ue170006Ev, symObjAddr: 0x36F8, symBinAddr: 0x100007420, symSize: 0x1C }
  - { offsetInCU: 0x11896, offset: 0x11896, size: 0x8, addend: 0x0, symName: __ZNSt3__116allocator_traitsINS_9allocatorINS_4pairIfiEEEEE8max_sizeB8ue170006IS4_vEEmRKS4_, symObjAddr: 0x376C, symBinAddr: 0x100007494, symSize: 0x24 }
  - { offsetInCU: 0x118C4, offset: 0x118C4, size: 0x8, addend: 0x0, symName: __ZNKSt3__16vectorINS_4pairIfiEENS_9allocatorIS2_EEE7__allocB8ue170006Ev, symObjAddr: 0x3790, symBinAddr: 0x1000074B8, symSize: 0x28 }
  - { offsetInCU: 0x118E9, offset: 0x118E9, size: 0x8, addend: 0x0, symName: __ZNSt3__114numeric_limitsIlE3maxB8ue170006Ev, symObjAddr: 0x37B8, symBinAddr: 0x1000074E0, symSize: 0x14 }
  - { offsetInCU: 0x11911, offset: 0x11911, size: 0x8, addend: 0x0, symName: __ZNKSt3__16__lessIvvEclB8ue170006ImmEEbRKT_RKT0_, symObjAddr: 0x3820, symBinAddr: 0x100007548, symSize: 0x34 }
  - { offsetInCU: 0x11964, offset: 0x11964, size: 0x8, addend: 0x0, symName: __ZNKSt3__19allocatorINS_4pairIfiEEE8max_sizeB8ue170006Ev, symObjAddr: 0x3854, symBinAddr: 0x10000757C, symSize: 0x14 }
  - { offsetInCU: 0x11989, offset: 0x11989, size: 0x8, addend: 0x0, symName: __ZNKSt3__117__compressed_pairIPNS_4pairIfiEENS_9allocatorIS2_EEE6secondB8ue170006Ev, symObjAddr: 0x3868, symBinAddr: 0x100007590, symSize: 0x24 }
  - { offsetInCU: 0x119AE, offset: 0x119AE, size: 0x8, addend: 0x0, symName: __ZNKSt3__122__compressed_pair_elemINS_9allocatorINS_4pairIfiEEEELi1ELb1EE5__getB8ue170006Ev, symObjAddr: 0x388C, symBinAddr: 0x1000075B4, symSize: 0x14 }
  - { offsetInCU: 0x119D3, offset: 0x119D3, size: 0x8, addend: 0x0, symName: __ZNSt3__123__libcpp_numeric_limitsIlLb1EE3maxB8ue170006Ev, symObjAddr: 0x38A0, symBinAddr: 0x1000075C8, symSize: 0x8 }
  - { offsetInCU: 0x119E7, offset: 0x119E7, size: 0x8, addend: 0x0, symName: __ZNSt12length_errorC1B8ue170006EPKc, symObjAddr: 0x390C, symBinAddr: 0x100007634, symSize: 0x34 }
  - { offsetInCU: 0x11A1E, offset: 0x11A1E, size: 0x8, addend: 0x0, symName: __ZNSt12length_errorC2B8ue170006EPKc, symObjAddr: 0x3940, symBinAddr: 0x100007668, symSize: 0x4C }
  - { offsetInCU: 0x11A55, offset: 0x11A55, size: 0x8, addend: 0x0, symName: __ZNSt3__114__split_bufferINS_4pairIfiEERNS_9allocatorIS2_EEEC2EmmS5_, symObjAddr: 0x39E0, symBinAddr: 0x100007708, symSize: 0xD4 }
  - { offsetInCU: 0x11AC8, offset: 0x11AC8, size: 0x8, addend: 0x0, symName: __ZNSt3__117__compressed_pairIPNS_4pairIfiEERNS_9allocatorIS2_EEEC1B8ue170006IDnS6_EEOT_OT0_, symObjAddr: 0x3AB4, symBinAddr: 0x1000077DC, symSize: 0x3C }
  - { offsetInCU: 0x11B1F, offset: 0x11B1F, size: 0x8, addend: 0x0, symName: __ZNSt3__114__split_bufferINS_4pairIfiEERNS_9allocatorIS2_EEE7__allocB8ue170006Ev, symObjAddr: 0x3B30, symBinAddr: 0x100007858, symSize: 0x28 }
  - { offsetInCU: 0x11B44, offset: 0x11B44, size: 0x8, addend: 0x0, symName: __ZNSt3__114__split_bufferINS_4pairIfiEERNS_9allocatorIS2_EEE9__end_capB8ue170006Ev, symObjAddr: 0x3B58, symBinAddr: 0x100007880, symSize: 0x28 }
  - { offsetInCU: 0x11B69, offset: 0x11B69, size: 0x8, addend: 0x0, symName: __ZNSt3__117__compressed_pairIPNS_4pairIfiEERNS_9allocatorIS2_EEEC2B8ue170006IDnS6_EEOT_OT0_, symObjAddr: 0x3B80, symBinAddr: 0x1000078A8, symSize: 0x48 }
  - { offsetInCU: 0x11BC0, offset: 0x11BC0, size: 0x8, addend: 0x0, symName: __ZNSt3__122__compressed_pair_elemIRNS_9allocatorINS_4pairIfiEEEELi1ELb0EEC2B8ue170006IS5_vEEOT_, symObjAddr: 0x3BC8, symBinAddr: 0x1000078F0, symSize: 0x20 }
  - { offsetInCU: 0x11C01, offset: 0x11C01, size: 0x8, addend: 0x0, symName: __ZNSt3__19allocatorINS_4pairIfiEEE8allocateB8ue170006Em, symObjAddr: 0x3BE8, symBinAddr: 0x100007910, symSize: 0x58 }
  - { offsetInCU: 0x11C34, offset: 0x11C34, size: 0x8, addend: 0x0, symName: __ZNSt3__117__compressed_pairIPNS_4pairIfiEERNS_9allocatorIS2_EEE6secondB8ue170006Ev, symObjAddr: 0x3CC0, symBinAddr: 0x1000079E8, symSize: 0x28 }
  - { offsetInCU: 0x11C59, offset: 0x11C59, size: 0x8, addend: 0x0, symName: __ZNSt3__122__compressed_pair_elemIRNS_9allocatorINS_4pairIfiEEEELi1ELb0EE5__getB8ue170006Ev, symObjAddr: 0x3CE8, symBinAddr: 0x100007A10, symSize: 0x18 }
  - { offsetInCU: 0x11C7E, offset: 0x11C7E, size: 0x8, addend: 0x0, symName: __ZNSt3__117__compressed_pairIPNS_4pairIfiEERNS_9allocatorIS2_EEE5firstB8ue170006Ev, symObjAddr: 0x3D00, symBinAddr: 0x100007A28, symSize: 0x24 }
  - { offsetInCU: 0x11CA3, offset: 0x11CA3, size: 0x8, addend: 0x0, symName: __ZNSt3__116reverse_iteratorIPNS_4pairIfiEEEC1B8ue170006ES3_, symObjAddr: 0x3E50, symBinAddr: 0x100007B78, symSize: 0x34 }
  - { offsetInCU: 0x11CDA, offset: 0x11CDA, size: 0x8, addend: 0x0, symName: __ZNKSt3__116reverse_iteratorIPNS_4pairIfiEEE4baseB8ue170006Ev, symObjAddr: 0x3E84, symBinAddr: 0x100007BAC, symSize: 0x18 }
  - { offsetInCU: 0x11CFF, offset: 0x11CFF, size: 0x8, addend: 0x0, symName: __ZNKSt3__16vectorINS_4pairIfiEENS_9allocatorIS2_EEE14__annotate_newB8ue170006Em, symObjAddr: 0x3ED8, symBinAddr: 0x100007C00, symSize: 0xAC }
  - { offsetInCU: 0x11D33, offset: 0x11D33, size: 0x8, addend: 0x0, symName: __ZNSt3__129_AllocatorDestroyRangeReverseINS_9allocatorINS_4pairIfiEEEENS_16reverse_iteratorIPS3_EEEC1B8ue170006ERS4_RS7_SA_, symObjAddr: 0x3FD0, symBinAddr: 0x100007CF8, symSize: 0x44 }
  - { offsetInCU: 0x11D89, offset: 0x11D89, size: 0x8, addend: 0x0, symName: __ZNSt3__116allocator_traitsINS_9allocatorINS_4pairIfiEEEEE9constructB8ue170006IS3_JS3_EvEEvRS4_PT_DpOT0_, symObjAddr: 0x405C, symBinAddr: 0x100007D84, symSize: 0x34 }
  - { offsetInCU: 0x11DE0, offset: 0x11DE0, size: 0x8, addend: 0x0, symName: __ZNKSt3__116reverse_iteratorIPNS_4pairIfiEEEdeB8ue170006Ev, symObjAddr: 0x40B4, symBinAddr: 0x100007DDC, symSize: 0x28 }
  - { offsetInCU: 0x11E13, offset: 0x11E13, size: 0x8, addend: 0x0, symName: __ZNSt3__116reverse_iteratorIPNS_4pairIfiEEEppB8ue170006Ev, symObjAddr: 0x40DC, symBinAddr: 0x100007E04, symSize: 0x20 }
  - { offsetInCU: 0x11E38, offset: 0x11E38, size: 0x8, addend: 0x0, symName: __ZNSt3__128__exception_guard_exceptionsINS_29_AllocatorDestroyRangeReverseINS_9allocatorINS_4pairIfiEEEENS_16reverse_iteratorIPS4_EEEEE10__completeB8ue170006Ev, symObjAddr: 0x40FC, symBinAddr: 0x100007E24, symSize: 0x1C }
  - { offsetInCU: 0x11E5D, offset: 0x11E5D, size: 0x8, addend: 0x0, symName: __ZNSt3__128__exception_guard_exceptionsINS_29_AllocatorDestroyRangeReverseINS_9allocatorINS_4pairIfiEEEENS_16reverse_iteratorIPS4_EEEEED1B8ue170006Ev, symObjAddr: 0x4118, symBinAddr: 0x100007E40, symSize: 0x2C }
  - { offsetInCU: 0x11E86, offset: 0x11E86, size: 0x8, addend: 0x0, symName: __ZNSt3__128__exception_guard_exceptionsINS_29_AllocatorDestroyRangeReverseINS_9allocatorINS_4pairIfiEEEENS_16reverse_iteratorIPS4_EEEEEC1B8ue170006ES9_, symObjAddr: 0x4144, symBinAddr: 0x100007E6C, symSize: 0x34 }
  - { offsetInCU: 0x11EBE, offset: 0x11EBE, size: 0x8, addend: 0x0, symName: __ZNSt3__128__exception_guard_exceptionsINS_29_AllocatorDestroyRangeReverseINS_9allocatorINS_4pairIfiEEEENS_16reverse_iteratorIPS4_EEEEEC2B8ue170006ES9_, symObjAddr: 0x4178, symBinAddr: 0x100007EA0, symSize: 0x30 }
  - { offsetInCU: 0x11EF6, offset: 0x11EF6, size: 0x8, addend: 0x0, symName: __ZNSt3__129_AllocatorDestroyRangeReverseINS_9allocatorINS_4pairIfiEEEENS_16reverse_iteratorIPS3_EEEC2B8ue170006ERS4_RS7_SA_, symObjAddr: 0x41A8, symBinAddr: 0x100007ED0, symSize: 0x38 }
  - { offsetInCU: 0x11F4C, offset: 0x11F4C, size: 0x8, addend: 0x0, symName: __ZNSt3__19allocatorINS_4pairIfiEEE9constructB8ue170006IS2_JS2_EEEvPT_DpOT0_, symObjAddr: 0x41E0, symBinAddr: 0x100007F08, symSize: 0x28 }
  - { offsetInCU: 0x11FA6, offset: 0x11FA6, size: 0x8, addend: 0x0, symName: __ZNSt3__119__to_address_helperINS_16reverse_iteratorIPNS_4pairIfiEEEEvE6__callB8ue170006ERKS5_, symObjAddr: 0x4208, symBinAddr: 0x100007F30, symSize: 0x38 }
  - { offsetInCU: 0x11FC9, offset: 0x11FC9, size: 0x8, addend: 0x0, symName: __ZNKSt3__116reverse_iteratorIPNS_4pairIfiEEEptB8ue170006Ev, symObjAddr: 0x4240, symBinAddr: 0x100007F68, symSize: 0x24 }
  - { offsetInCU: 0x11FEE, offset: 0x11FEE, size: 0x8, addend: 0x0, symName: __ZNSt3__128__exception_guard_exceptionsINS_29_AllocatorDestroyRangeReverseINS_9allocatorINS_4pairIfiEEEENS_16reverse_iteratorIPS4_EEEEED2B8ue170006Ev, symObjAddr: 0x4264, symBinAddr: 0x100007F8C, symSize: 0x50 }
  - { offsetInCU: 0x12017, offset: 0x12017, size: 0x8, addend: 0x0, symName: __ZNKSt3__129_AllocatorDestroyRangeReverseINS_9allocatorINS_4pairIfiEEEENS_16reverse_iteratorIPS3_EEEclB8ue170006Ev, symObjAddr: 0x42B4, symBinAddr: 0x100007FDC, symSize: 0xB4 }
  - { offsetInCU: 0x1203D, offset: 0x1203D, size: 0x8, addend: 0x0, symName: __ZNSt3__116reverse_iteratorINS0_IPNS_4pairIfiEEEEEC1B8ue170006ES4_, symObjAddr: 0x43D8, symBinAddr: 0x100008100, symSize: 0x3C }
  - { offsetInCU: 0x12074, offset: 0x12074, size: 0x8, addend: 0x0, symName: __ZNSt3__116reverse_iteratorINS0_IPNS_4pairIfiEEEEEppB8ue170006Ev, symObjAddr: 0x4498, symBinAddr: 0x1000081C0, symSize: 0x30 }
  - { offsetInCU: 0x12099, offset: 0x12099, size: 0x8, addend: 0x0, symName: __ZNKSt3__116reverse_iteratorINS0_IPNS_4pairIfiEEEEE4baseB8ue170006Ev, symObjAddr: 0x44C8, symBinAddr: 0x1000081F0, symSize: 0x24 }
  - { offsetInCU: 0x120C3, offset: 0x120C3, size: 0x8, addend: 0x0, symName: __ZNSt3__119__to_address_helperINS_16reverse_iteratorINS1_IPNS_4pairIfiEEEEEEvE6__callB8ue170006ERKS6_, symObjAddr: 0x44EC, symBinAddr: 0x100008214, symSize: 0x38 }
  - { offsetInCU: 0x120E6, offset: 0x120E6, size: 0x8, addend: 0x0, symName: __ZNKSt3__116reverse_iteratorINS0_IPNS_4pairIfiEEEEEptB8ue170006Ev, symObjAddr: 0x4524, symBinAddr: 0x10000824C, symSize: 0x24 }
  - { offsetInCU: 0x1210B, offset: 0x1210B, size: 0x8, addend: 0x0, symName: __ZNKSt3__116reverse_iteratorINS0_IPNS_4pairIfiEEEEEdeB8ue170006Ev, symObjAddr: 0x4548, symBinAddr: 0x100008270, symSize: 0x34 }
  - { offsetInCU: 0x1213E, offset: 0x1213E, size: 0x8, addend: 0x0, symName: __ZNSt3__116reverse_iteratorIPNS_4pairIfiEEEmmB8ue170006Ev, symObjAddr: 0x457C, symBinAddr: 0x1000082A4, symSize: 0x20 }
  - { offsetInCU: 0x12163, offset: 0x12163, size: 0x8, addend: 0x0, symName: __ZNSt3__116reverse_iteratorINS0_IPNS_4pairIfiEEEEEC2B8ue170006ES4_, symObjAddr: 0x459C, symBinAddr: 0x1000082C4, symSize: 0x2C }
  - { offsetInCU: 0x1219A, offset: 0x1219A, size: 0x8, addend: 0x0, symName: __ZNSt3__116reverse_iteratorIPNS_4pairIfiEEEC2B8ue170006ES3_, symObjAddr: 0x45C8, symBinAddr: 0x1000082F0, symSize: 0x28 }
  - { offsetInCU: 0x121D1, offset: 0x121D1, size: 0x8, addend: 0x0, symName: __ZNSt3__114__split_bufferINS_4pairIfiEERNS_9allocatorIS2_EEED2Ev, symObjAddr: 0x45F0, symBinAddr: 0x100008318, symSize: 0x8C }
  - { offsetInCU: 0x121FC, offset: 0x121FC, size: 0x8, addend: 0x0, symName: __ZNSt3__114__split_bufferINS_4pairIfiEERNS_9allocatorIS2_EEE5clearB8ue170006Ev, symObjAddr: 0x467C, symBinAddr: 0x1000083A4, symSize: 0x28 }
  - { offsetInCU: 0x12221, offset: 0x12221, size: 0x8, addend: 0x0, symName: __ZNKSt3__114__split_bufferINS_4pairIfiEERNS_9allocatorIS2_EEE8capacityB8ue170006Ev, symObjAddr: 0x46A4, symBinAddr: 0x1000083CC, symSize: 0x40 }
  - { offsetInCU: 0x12246, offset: 0x12246, size: 0x8, addend: 0x0, symName: __ZNSt3__114__split_bufferINS_4pairIfiEERNS_9allocatorIS2_EEE17__destruct_at_endB8ue170006EPS2_, symObjAddr: 0x46E4, symBinAddr: 0x10000840C, symSize: 0x2C }
  - { offsetInCU: 0x12278, offset: 0x12278, size: 0x8, addend: 0x0, symName: __ZNSt3__114__split_bufferINS_4pairIfiEERNS_9allocatorIS2_EEE17__destruct_at_endB8ue170006EPS2_NS_17integral_constantIbLb0EEE, symObjAddr: 0x4710, symBinAddr: 0x100008438, symSize: 0x80 }
  - { offsetInCU: 0x122B8, offset: 0x122B8, size: 0x8, addend: 0x0, symName: __ZNKSt3__114__split_bufferINS_4pairIfiEERNS_9allocatorIS2_EEE9__end_capB8ue170006Ev, symObjAddr: 0x4790, symBinAddr: 0x1000084B8, symSize: 0x28 }
  - { offsetInCU: 0x122DD, offset: 0x122DD, size: 0x8, addend: 0x0, symName: __ZNKSt3__117__compressed_pairIPNS_4pairIfiEERNS_9allocatorIS2_EEE5firstB8ue170006Ev, symObjAddr: 0x47B8, symBinAddr: 0x1000084E0, symSize: 0x24 }
  - { offsetInCU: 0x12302, offset: 0x12302, size: 0x8, addend: 0x0, symName: __ZNKSt3__16vectorINS_4pairIfiEENS_9allocatorIS2_EEE11__make_iterB8ue170006EPKS2_, symObjAddr: 0x47DC, symBinAddr: 0x100008504, symSize: 0x30 }
  - { offsetInCU: 0x12336, offset: 0x12336, size: 0x8, addend: 0x0, symName: __ZNSt3__111__wrap_iterIPKNS_4pairIfiEEEC1B8ue170006ES4_, symObjAddr: 0x480C, symBinAddr: 0x100008534, symSize: 0x34 }
  - { offsetInCU: 0x1236D, offset: 0x1236D, size: 0x8, addend: 0x0, symName: __ZNSt3__111__wrap_iterIPKNS_4pairIfiEEEC2B8ue170006ES4_, symObjAddr: 0x4840, symBinAddr: 0x100008568, symSize: 0x20 }
  - { offsetInCU: 0x123A4, offset: 0x123A4, size: 0x8, addend: 0x0, symName: __ZNSt3__113basic_ostreamIcNS_11char_traitsIcEEEC2B8ue170006EPNS_15basic_streambufIcS2_EE, symObjAddr: 0x4860, symBinAddr: 0x100008588, symSize: 0x60 }
  - { offsetInCU: 0x123E7, offset: 0x123E7, size: 0x8, addend: 0x0, symName: __ZNSt3__111char_traitsIcE6lengthB8ue170006EPKc, symObjAddr: 0x4AAC, symBinAddr: 0x1000087D4, symSize: 0x34 }
  - { offsetInCU: 0x12428, offset: 0x12428, size: 0x8, addend: 0x0, symName: __ZNKSt3__113basic_ostreamIcNS_11char_traitsIcEEE6sentrycvbB8ue170006Ev, symObjAddr: 0x4AE0, symBinAddr: 0x100008808, symSize: 0x1C }
  - { offsetInCU: 0x1244D, offset: 0x1244D, size: 0x8, addend: 0x0, symName: __ZNSt3__119ostreambuf_iteratorIcNS_11char_traitsIcEEEC1B8ue170006ERNS_13basic_ostreamIcS2_EE, symObjAddr: 0x4D3C, symBinAddr: 0x100008A64, symSize: 0x34 }
  - { offsetInCU: 0x12484, offset: 0x12484, size: 0x8, addend: 0x0, symName: __ZNKSt3__18ios_base5flagsB8ue170006Ev, symObjAddr: 0x4D70, symBinAddr: 0x100008A98, symSize: 0x18 }
  - { offsetInCU: 0x124AA, offset: 0x124AA, size: 0x8, addend: 0x0, symName: __ZNKSt3__19basic_iosIcNS_11char_traitsIcEEE4fillB8ue170006Ev, symObjAddr: 0x4D88, symBinAddr: 0x100008AB0, symSize: 0x64 }
  - { offsetInCU: 0x124D1, offset: 0x124D1, size: 0x8, addend: 0x0, symName: __ZNKSt3__119ostreambuf_iteratorIcNS_11char_traitsIcEEE6failedB8ue170006Ev, symObjAddr: 0x4DEC, symBinAddr: 0x100008B14, symSize: 0x24 }
  - { offsetInCU: 0x124F6, offset: 0x124F6, size: 0x8, addend: 0x0, symName: __ZNKSt3__18ios_base5widthB8ue170006Ev, symObjAddr: 0x4E10, symBinAddr: 0x100008B38, symSize: 0x18 }
  - { offsetInCU: 0x1251D, offset: 0x1251D, size: 0x8, addend: 0x0, symName: __ZNSt3__115basic_streambufIcNS_11char_traitsIcEEE5sputnB8ue170006EPKcl, symObjAddr: 0x4E28, symBinAddr: 0x100008B50, symSize: 0x3C }
  - { offsetInCU: 0x1255E, offset: 0x1255E, size: 0x8, addend: 0x0, symName: __ZNSt3__112basic_stringIcNS_11char_traitsIcEENS_9allocatorIcEEEC1B8ue170006Emc, symObjAddr: 0x4E64, symBinAddr: 0x100008B8C, symSize: 0x3C }
  - { offsetInCU: 0x125A5, offset: 0x125A5, size: 0x8, addend: 0x0, symName: __ZNSt3__18ios_base5widthB8ue170006El, symObjAddr: 0x4EA0, symBinAddr: 0x100008BC8, symSize: 0x2C }
  - { offsetInCU: 0x125EA, offset: 0x125EA, size: 0x8, addend: 0x0, symName: __ZNSt3__112basic_stringIcNS_11char_traitsIcEENS_9allocatorIcEEEC2B8ue170006Emc, symObjAddr: 0x4ECC, symBinAddr: 0x100008BF4, symSize: 0x4C }
  - { offsetInCU: 0x12631, offset: 0x12631, size: 0x8, addend: 0x0, symName: __ZNSt3__119ostreambuf_iteratorIcNS_11char_traitsIcEEEC2B8ue170006ERNS_13basic_ostreamIcS2_EE, symObjAddr: 0x4F18, symBinAddr: 0x100008C40, symSize: 0x54 }
  - { offsetInCU: 0x12668, offset: 0x12668, size: 0x8, addend: 0x0, symName: __ZNSt3__112basic_stringIcNS_11char_traitsIcEENS_9allocatorIcEEEC2B8ue170006ILi0EEEPKc, symObjAddr: 0x4F90, symBinAddr: 0x100008CB8, symSize: 0x58 }
  - { offsetInCU: 0x126A6, offset: 0x126A6, size: 0x8, addend: 0x0, symName: __ZNSt3__16vectorINS_12basic_stringIcNS_11char_traitsIcEENS_9allocatorIcEEEENS4_IS6_EEEC2B8ue170006ESt16initializer_listIS6_E, symObjAddr: 0x4FE8, symBinAddr: 0x100008D10, symSize: 0x120 }
  - { offsetInCU: 0x126F5, offset: 0x126F5, size: 0x8, addend: 0x0, symName: __ZNSt3__117__compressed_pairIPNS_12basic_stringIcNS_11char_traitsIcEENS_9allocatorIcEEEENS4_IS6_EEEC1B8ue170006IDnNS_18__default_init_tagEEEOT_OT0_, symObjAddr: 0x5108, symBinAddr: 0x100008E30, symSize: 0x3C }
  - { offsetInCU: 0x1274C, offset: 0x1274C, size: 0x8, addend: 0x0, symName: __ZNSt3__16vectorINS_12basic_stringIcNS_11char_traitsIcEENS_9allocatorIcEEEENS4_IS6_EEE16__destroy_vectorC1B8ue170006ERS8_, symObjAddr: 0x5184, symBinAddr: 0x100008EAC, symSize: 0x34 }
  - { offsetInCU: 0x12784, offset: 0x12784, size: 0x8, addend: 0x0, symName: __ZNKSt16initializer_listINSt3__112basic_stringIcNS0_11char_traitsIcEENS0_9allocatorIcEEEEE4sizeB8ue170006Ev, symObjAddr: 0x51B8, symBinAddr: 0x100008EE0, symSize: 0x18 }
  - { offsetInCU: 0x127A9, offset: 0x127A9, size: 0x8, addend: 0x0, symName: __ZNSt3__16vectorINS_12basic_stringIcNS_11char_traitsIcEENS_9allocatorIcEEEENS4_IS6_EEE11__vallocateB8ue170006Em, symObjAddr: 0x51D0, symBinAddr: 0x100008EF8, symSize: 0xB4 }
  - { offsetInCU: 0x127EB, offset: 0x127EB, size: 0x8, addend: 0x0, symName: __ZNSt3__16vectorINS_12basic_stringIcNS_11char_traitsIcEENS_9allocatorIcEEEENS4_IS6_EEE18__construct_at_endIPKS6_SB_EEvT_T0_m, symObjAddr: 0x5284, symBinAddr: 0x100008FAC, symSize: 0x8C }
  - { offsetInCU: 0x12860, offset: 0x12860, size: 0x8, addend: 0x0, symName: __ZNKSt16initializer_listINSt3__112basic_stringIcNS0_11char_traitsIcEENS0_9allocatorIcEEEEE5beginB8ue170006Ev, symObjAddr: 0x5310, symBinAddr: 0x100009038, symSize: 0x18 }
  - { offsetInCU: 0x12885, offset: 0x12885, size: 0x8, addend: 0x0, symName: __ZNKSt16initializer_listINSt3__112basic_stringIcNS0_11char_traitsIcEENS0_9allocatorIcEEEEE3endB8ue170006Ev, symObjAddr: 0x5328, symBinAddr: 0x100009050, symSize: 0x28 }
  - { offsetInCU: 0x128AA, offset: 0x128AA, size: 0x8, addend: 0x0, symName: __ZNSt3__128__exception_guard_exceptionsINS_6vectorINS_12basic_stringIcNS_11char_traitsIcEENS_9allocatorIcEEEENS5_IS7_EEE16__destroy_vectorEE10__completeB8ue170006Ev, symObjAddr: 0x5350, symBinAddr: 0x100009078, symSize: 0x1C }
  - { offsetInCU: 0x128CF, offset: 0x128CF, size: 0x8, addend: 0x0, symName: __ZNSt3__128__exception_guard_exceptionsINS_6vectorINS_12basic_stringIcNS_11char_traitsIcEENS_9allocatorIcEEEENS5_IS7_EEE16__destroy_vectorEED1B8ue170006Ev, symObjAddr: 0x536C, symBinAddr: 0x100009094, symSize: 0x2C }
  - { offsetInCU: 0x128F8, offset: 0x128F8, size: 0x8, addend: 0x0, symName: __ZNSt3__117__compressed_pairIPNS_12basic_stringIcNS_11char_traitsIcEENS_9allocatorIcEEEENS4_IS6_EEEC2B8ue170006IDnNS_18__default_init_tagEEEOT_OT0_, symObjAddr: 0x5398, symBinAddr: 0x1000090C0, symSize: 0x40 }
  - { offsetInCU: 0x1294F, offset: 0x1294F, size: 0x8, addend: 0x0, symName: __ZNSt3__122__compressed_pair_elemIPNS_12basic_stringIcNS_11char_traitsIcEENS_9allocatorIcEEEELi0ELb0EEC2B8ue170006IDnvEEOT_, symObjAddr: 0x53D8, symBinAddr: 0x100009100, symSize: 0x1C }
  - { offsetInCU: 0x12990, offset: 0x12990, size: 0x8, addend: 0x0, symName: __ZNSt3__122__compressed_pair_elemINS_9allocatorINS_12basic_stringIcNS_11char_traitsIcEENS1_IcEEEEEELi1ELb1EEC2B8ue170006ENS_18__default_init_tagE, symObjAddr: 0x53F4, symBinAddr: 0x10000911C, symSize: 0x2C }
  - { offsetInCU: 0x129C4, offset: 0x129C4, size: 0x8, addend: 0x0, symName: __ZNSt3__19allocatorINS_12basic_stringIcNS_11char_traitsIcEENS0_IcEEEEEC2B8ue170006Ev, symObjAddr: 0x5420, symBinAddr: 0x100009148, symSize: 0x2C }
  - { offsetInCU: 0x129ED, offset: 0x129ED, size: 0x8, addend: 0x0, symName: __ZNSt3__116__non_trivial_ifILb1ENS_9allocatorINS_12basic_stringIcNS_11char_traitsIcEENS1_IcEEEEEEEC2B8ue170006Ev, symObjAddr: 0x544C, symBinAddr: 0x100009174, symSize: 0x14 }
  - { offsetInCU: 0x12A16, offset: 0x12A16, size: 0x8, addend: 0x0, symName: __ZNSt3__128__exception_guard_exceptionsINS_6vectorINS_12basic_stringIcNS_11char_traitsIcEENS_9allocatorIcEEEENS5_IS7_EEE16__destroy_vectorEEC1B8ue170006ESA_, symObjAddr: 0x5460, symBinAddr: 0x100009188, symSize: 0x34 }
  - { offsetInCU: 0x12A4D, offset: 0x12A4D, size: 0x8, addend: 0x0, symName: __ZNSt3__128__exception_guard_exceptionsINS_6vectorINS_12basic_stringIcNS_11char_traitsIcEENS_9allocatorIcEEEENS5_IS7_EEE16__destroy_vectorEEC2B8ue170006ESA_, symObjAddr: 0x5494, symBinAddr: 0x1000091BC, symSize: 0x24 }
  - { offsetInCU: 0x12A84, offset: 0x12A84, size: 0x8, addend: 0x0, symName: __ZNSt3__16vectorINS_12basic_stringIcNS_11char_traitsIcEENS_9allocatorIcEEEENS4_IS6_EEE16__destroy_vectorC2B8ue170006ERS8_, symObjAddr: 0x54B8, symBinAddr: 0x1000091E0, symSize: 0x20 }
  - { offsetInCU: 0x12ABB, offset: 0x12ABB, size: 0x8, addend: 0x0, symName: __ZNKSt3__16vectorINS_12basic_stringIcNS_11char_traitsIcEENS_9allocatorIcEEEENS4_IS6_EEE8max_sizeEv, symObjAddr: 0x54D8, symBinAddr: 0x100009200, symSize: 0x60 }
  - { offsetInCU: 0x12AE2, offset: 0x12AE2, size: 0x8, addend: 0x0, symName: __ZNKSt3__16vectorINS_12basic_stringIcNS_11char_traitsIcEENS_9allocatorIcEEEENS4_IS6_EEE20__throw_length_errorB8ue170006Ev, symObjAddr: 0x5538, symBinAddr: 0x100009260, symSize: 0x1C }
  - { offsetInCU: 0x12B07, offset: 0x12B07, size: 0x8, addend: 0x0, symName: __ZNSt3__16vectorINS_12basic_stringIcNS_11char_traitsIcEENS_9allocatorIcEEEENS4_IS6_EEE7__allocB8ue170006Ev, symObjAddr: 0x5594, symBinAddr: 0x1000092BC, symSize: 0x28 }
  - { offsetInCU: 0x12B2C, offset: 0x12B2C, size: 0x8, addend: 0x0, symName: __ZNSt3__16vectorINS_12basic_stringIcNS_11char_traitsIcEENS_9allocatorIcEEEENS4_IS6_EEE9__end_capB8ue170006Ev, symObjAddr: 0x55BC, symBinAddr: 0x1000092E4, symSize: 0x28 }
  - { offsetInCU: 0x12B51, offset: 0x12B51, size: 0x8, addend: 0x0, symName: __ZNKSt3__16vectorINS_12basic_stringIcNS_11char_traitsIcEENS_9allocatorIcEEEENS4_IS6_EEE14__annotate_newB8ue170006Em, symObjAddr: 0x55E4, symBinAddr: 0x10000930C, symSize: 0xC8 }
  - { offsetInCU: 0x12B8F, offset: 0x12B8F, size: 0x8, addend: 0x0, symName: __ZNSt3__116allocator_traitsINS_9allocatorINS_12basic_stringIcNS_11char_traitsIcEENS1_IcEEEEEEE8max_sizeB8ue170006IS7_vEEmRKS7_, symObjAddr: 0x56AC, symBinAddr: 0x1000093D4, symSize: 0x24 }
  - { offsetInCU: 0x12BBD, offset: 0x12BBD, size: 0x8, addend: 0x0, symName: __ZNKSt3__16vectorINS_12basic_stringIcNS_11char_traitsIcEENS_9allocatorIcEEEENS4_IS6_EEE7__allocB8ue170006Ev, symObjAddr: 0x56D0, symBinAddr: 0x1000093F8, symSize: 0x28 }
  - { offsetInCU: 0x12BE2, offset: 0x12BE2, size: 0x8, addend: 0x0, symName: __ZNKSt3__19allocatorINS_12basic_stringIcNS_11char_traitsIcEENS0_IcEEEEE8max_sizeB8ue170006Ev, symObjAddr: 0x56F8, symBinAddr: 0x100009420, symSize: 0x18 }
  - { offsetInCU: 0x12C07, offset: 0x12C07, size: 0x8, addend: 0x0, symName: __ZNKSt3__117__compressed_pairIPNS_12basic_stringIcNS_11char_traitsIcEENS_9allocatorIcEEEENS4_IS6_EEE6secondB8ue170006Ev, symObjAddr: 0x5710, symBinAddr: 0x100009438, symSize: 0x24 }
  - { offsetInCU: 0x12C2C, offset: 0x12C2C, size: 0x8, addend: 0x0, symName: __ZNKSt3__122__compressed_pair_elemINS_9allocatorINS_12basic_stringIcNS_11char_traitsIcEENS1_IcEEEEEELi1ELb1EE5__getB8ue170006Ev, symObjAddr: 0x5734, symBinAddr: 0x10000945C, symSize: 0x14 }
  - { offsetInCU: 0x12C51, offset: 0x12C51, size: 0x8, addend: 0x0, symName: __ZNSt3__19allocatorINS_12basic_stringIcNS_11char_traitsIcEENS0_IcEEEEE8allocateB8ue170006Em, symObjAddr: 0x5748, symBinAddr: 0x100009470, symSize: 0x5C }
  - { offsetInCU: 0x12C84, offset: 0x12C84, size: 0x8, addend: 0x0, symName: __ZNSt3__117__compressed_pairIPNS_12basic_stringIcNS_11char_traitsIcEENS_9allocatorIcEEEENS4_IS6_EEE6secondB8ue170006Ev, symObjAddr: 0x57A4, symBinAddr: 0x1000094CC, symSize: 0x24 }
  - { offsetInCU: 0x12CA9, offset: 0x12CA9, size: 0x8, addend: 0x0, symName: __ZNSt3__122__compressed_pair_elemINS_9allocatorINS_12basic_stringIcNS_11char_traitsIcEENS1_IcEEEEEELi1ELb1EE5__getB8ue170006Ev, symObjAddr: 0x57C8, symBinAddr: 0x1000094F0, symSize: 0x14 }
  - { offsetInCU: 0x12CCE, offset: 0x12CCE, size: 0x8, addend: 0x0, symName: __ZNSt3__117__compressed_pairIPNS_12basic_stringIcNS_11char_traitsIcEENS_9allocatorIcEEEENS4_IS6_EEE5firstB8ue170006Ev, symObjAddr: 0x57DC, symBinAddr: 0x100009504, symSize: 0x24 }
  - { offsetInCU: 0x12CF3, offset: 0x12CF3, size: 0x8, addend: 0x0, symName: __ZNSt3__122__compressed_pair_elemIPNS_12basic_stringIcNS_11char_traitsIcEENS_9allocatorIcEEEELi0ELb0EE5__getB8ue170006Ev, symObjAddr: 0x5800, symBinAddr: 0x100009528, symSize: 0x14 }
  - { offsetInCU: 0x12D18, offset: 0x12D18, size: 0x8, addend: 0x0, symName: __ZNKSt3__16vectorINS_12basic_stringIcNS_11char_traitsIcEENS_9allocatorIcEEEENS4_IS6_EEE31__annotate_contiguous_containerB8ue170006EPKvSA_SA_SA_, symObjAddr: 0x5814, symBinAddr: 0x10000953C, symSize: 0x20 }
  - { offsetInCU: 0x12D6D, offset: 0x12D6D, size: 0x8, addend: 0x0, symName: __ZNKSt3__16vectorINS_12basic_stringIcNS_11char_traitsIcEENS_9allocatorIcEEEENS4_IS6_EEE4dataB8ue170006Ev, symObjAddr: 0x5834, symBinAddr: 0x10000955C, symSize: 0x28 }
  - { offsetInCU: 0x12D92, offset: 0x12D92, size: 0x8, addend: 0x0, symName: __ZNKSt3__16vectorINS_12basic_stringIcNS_11char_traitsIcEENS_9allocatorIcEEEENS4_IS6_EEE8capacityB8ue170006Ev, symObjAddr: 0x585C, symBinAddr: 0x100009584, symSize: 0x40 }
  - { offsetInCU: 0x12DB7, offset: 0x12DB7, size: 0x8, addend: 0x0, symName: __ZNKSt3__16vectorINS_12basic_stringIcNS_11char_traitsIcEENS_9allocatorIcEEEENS4_IS6_EEE9__end_capB8ue170006Ev, symObjAddr: 0x58B0, symBinAddr: 0x1000095D8, symSize: 0x28 }
  - { offsetInCU: 0x12DDC, offset: 0x12DDC, size: 0x8, addend: 0x0, symName: __ZNKSt3__117__compressed_pairIPNS_12basic_stringIcNS_11char_traitsIcEENS_9allocatorIcEEEENS4_IS6_EEE5firstB8ue170006Ev, symObjAddr: 0x58D8, symBinAddr: 0x100009600, symSize: 0x24 }
  - { offsetInCU: 0x12E01, offset: 0x12E01, size: 0x8, addend: 0x0, symName: __ZNKSt3__122__compressed_pair_elemIPNS_12basic_stringIcNS_11char_traitsIcEENS_9allocatorIcEEEELi0ELb0EE5__getB8ue170006Ev, symObjAddr: 0x58FC, symBinAddr: 0x100009624, symSize: 0x14 }
  - { offsetInCU: 0x12E3F, offset: 0x12E3F, size: 0x8, addend: 0x0, symName: __ZNSt3__16vectorINS_12basic_stringIcNS_11char_traitsIcEENS_9allocatorIcEEEENS4_IS6_EEE21_ConstructTransactionC1B8ue170006ERS8_m, symObjAddr: 0x5910, symBinAddr: 0x100009638, symSize: 0x3C }
  - { offsetInCU: 0x12E86, offset: 0x12E86, size: 0x8, addend: 0x0, symName: __ZNSt3__16vectorINS_12basic_stringIcNS_11char_traitsIcEENS_9allocatorIcEEEENS4_IS6_EEE21_ConstructTransactionD1B8ue170006Ev, symObjAddr: 0x59CC, symBinAddr: 0x1000096F4, symSize: 0x2C }
  - { offsetInCU: 0x12EAF, offset: 0x12EAF, size: 0x8, addend: 0x0, symName: __ZNSt3__16vectorINS_12basic_stringIcNS_11char_traitsIcEENS_9allocatorIcEEEENS4_IS6_EEE21_ConstructTransactionC2B8ue170006ERS8_m, symObjAddr: 0x59F8, symBinAddr: 0x100009720, symSize: 0x4C }
  - { offsetInCU: 0x12F14, offset: 0x12F14, size: 0x8, addend: 0x0, symName: __ZNSt3__14pairIPKNS_12basic_stringIcNS_11char_traitsIcEENS_9allocatorIcEEEES8_EC1B8ue170006IS8_S8_LPv0EEEOT_OT0_, symObjAddr: 0x5C54, symBinAddr: 0x10000997C, symSize: 0x3C }
  - { offsetInCU: 0x12F71, offset: 0x12F71, size: 0x8, addend: 0x0, symName: __ZNSt3__14pairIPKNS_12basic_stringIcNS_11char_traitsIcEENS_9allocatorIcEEEES8_EC2B8ue170006IS8_S8_LPv0EEEOT_OT0_, symObjAddr: 0x5C90, symBinAddr: 0x1000099B8, symSize: 0x34 }
  - { offsetInCU: 0x12FCE, offset: 0x12FCE, size: 0x8, addend: 0x0, symName: __ZNSt3__118__unwrap_iter_implIPKNS_12basic_stringIcNS_11char_traitsIcEENS_9allocatorIcEEEELb1EE8__unwrapB8ue170006ES8_, symObjAddr: 0x5CC4, symBinAddr: 0x1000099EC, symSize: 0x24 }
  - { offsetInCU: 0x12FF1, offset: 0x12FF1, size: 0x8, addend: 0x0, symName: __ZNSt3__129_AllocatorDestroyRangeReverseINS_9allocatorINS_12basic_stringIcNS_11char_traitsIcEENS1_IcEEEEEEPS6_EC1B8ue170006ERS7_RS8_SB_, symObjAddr: 0x5D48, symBinAddr: 0x100009A70, symSize: 0x44 }
  - { offsetInCU: 0x13047, offset: 0x13047, size: 0x8, addend: 0x0, symName: __ZNSt3__116allocator_traitsINS_9allocatorINS_12basic_stringIcNS_11char_traitsIcEENS1_IcEEEEEEE9constructB8ue170006IS6_JRKS6_EvEEvRS7_PT_DpOT0_, symObjAddr: 0x5D8C, symBinAddr: 0x100009AB4, symSize: 0x34 }
  - { offsetInCU: 0x1309E, offset: 0x1309E, size: 0x8, addend: 0x0, symName: __ZNSt3__128__exception_guard_exceptionsINS_29_AllocatorDestroyRangeReverseINS_9allocatorINS_12basic_stringIcNS_11char_traitsIcEENS2_IcEEEEEEPS7_EEE10__completeB8ue170006Ev, symObjAddr: 0x5DC0, symBinAddr: 0x100009AE8, symSize: 0x1C }
  - { offsetInCU: 0x130C3, offset: 0x130C3, size: 0x8, addend: 0x0, symName: __ZNSt3__128__exception_guard_exceptionsINS_29_AllocatorDestroyRangeReverseINS_9allocatorINS_12basic_stringIcNS_11char_traitsIcEENS2_IcEEEEEEPS7_EEED1B8ue170006Ev, symObjAddr: 0x5DDC, symBinAddr: 0x100009B04, symSize: 0x2C }
  - { offsetInCU: 0x130EC, offset: 0x130EC, size: 0x8, addend: 0x0, symName: __ZNSt3__128__exception_guard_exceptionsINS_29_AllocatorDestroyRangeReverseINS_9allocatorINS_12basic_stringIcNS_11char_traitsIcEENS2_IcEEEEEEPS7_EEEC1B8ue170006ESA_, symObjAddr: 0x5E08, symBinAddr: 0x100009B30, symSize: 0x34 }
  - { offsetInCU: 0x13124, offset: 0x13124, size: 0x8, addend: 0x0, symName: __ZNSt3__128__exception_guard_exceptionsINS_29_AllocatorDestroyRangeReverseINS_9allocatorINS_12basic_stringIcNS_11char_traitsIcEENS2_IcEEEEEEPS7_EEEC2B8ue170006ESA_, symObjAddr: 0x5E3C, symBinAddr: 0x100009B64, symSize: 0x30 }
  - { offsetInCU: 0x1315C, offset: 0x1315C, size: 0x8, addend: 0x0, symName: __ZNSt3__129_AllocatorDestroyRangeReverseINS_9allocatorINS_12basic_stringIcNS_11char_traitsIcEENS1_IcEEEEEEPS6_EC2B8ue170006ERS7_RS8_SB_, symObjAddr: 0x5E6C, symBinAddr: 0x100009B94, symSize: 0x38 }
  - { offsetInCU: 0x131B2, offset: 0x131B2, size: 0x8, addend: 0x0, symName: __ZNSt3__19allocatorINS_12basic_stringIcNS_11char_traitsIcEENS0_IcEEEEE9constructB8ue170006IS5_JRKS5_EEEvPT_DpOT0_, symObjAddr: 0x5EA4, symBinAddr: 0x100009BCC, symSize: 0x30 }
  - { offsetInCU: 0x13207, offset: 0x13207, size: 0x8, addend: 0x0, symName: __ZNSt3__128__exception_guard_exceptionsINS_29_AllocatorDestroyRangeReverseINS_9allocatorINS_12basic_stringIcNS_11char_traitsIcEENS2_IcEEEEEEPS7_EEED2B8ue170006Ev, symObjAddr: 0x5ED4, symBinAddr: 0x100009BFC, symSize: 0x50 }
  - { offsetInCU: 0x13230, offset: 0x13230, size: 0x8, addend: 0x0, symName: __ZNKSt3__129_AllocatorDestroyRangeReverseINS_9allocatorINS_12basic_stringIcNS_11char_traitsIcEENS1_IcEEEEEEPS6_EclB8ue170006Ev, symObjAddr: 0x5F24, symBinAddr: 0x100009C4C, symSize: 0x68 }
  - { offsetInCU: 0x13255, offset: 0x13255, size: 0x8, addend: 0x0, symName: __ZNSt3__116reverse_iteratorIPNS_12basic_stringIcNS_11char_traitsIcEENS_9allocatorIcEEEEEC1B8ue170006ES7_, symObjAddr: 0x5FFC, symBinAddr: 0x100009D24, symSize: 0x34 }
  - { offsetInCU: 0x1328C, offset: 0x1328C, size: 0x8, addend: 0x0, symName: __ZNSt3__116allocator_traitsINS_9allocatorINS_12basic_stringIcNS_11char_traitsIcEENS1_IcEEEEEEE7destroyB8ue170006IS6_vEEvRS7_PT_, symObjAddr: 0x6078, symBinAddr: 0x100009DA0, symSize: 0x2C }
  - { offsetInCU: 0x132C9, offset: 0x132C9, size: 0x8, addend: 0x0, symName: __ZNSt3__116reverse_iteratorIPNS_12basic_stringIcNS_11char_traitsIcEENS_9allocatorIcEEEEEppB8ue170006Ev, symObjAddr: 0x60C8, symBinAddr: 0x100009DF0, symSize: 0x20 }
  - { offsetInCU: 0x132EE, offset: 0x132EE, size: 0x8, addend: 0x0, symName: __ZNKSt3__116reverse_iteratorIPNS_12basic_stringIcNS_11char_traitsIcEENS_9allocatorIcEEEEE4baseB8ue170006Ev, symObjAddr: 0x60E8, symBinAddr: 0x100009E10, symSize: 0x18 }
  - { offsetInCU: 0x13313, offset: 0x13313, size: 0x8, addend: 0x0, symName: __ZNSt3__19allocatorINS_12basic_stringIcNS_11char_traitsIcEENS0_IcEEEEE7destroyB8ue170006EPS5_, symObjAddr: 0x6100, symBinAddr: 0x100009E28, symSize: 0x28 }
  - { offsetInCU: 0x1334B, offset: 0x1334B, size: 0x8, addend: 0x0, symName: __ZNSt3__119__to_address_helperINS_16reverse_iteratorIPNS_12basic_stringIcNS_11char_traitsIcEENS_9allocatorIcEEEEEEvE6__callB8ue170006ERKS9_, symObjAddr: 0x6128, symBinAddr: 0x100009E50, symSize: 0x38 }
  - { offsetInCU: 0x1336E, offset: 0x1336E, size: 0x8, addend: 0x0, symName: __ZNKSt3__116reverse_iteratorIPNS_12basic_stringIcNS_11char_traitsIcEENS_9allocatorIcEEEEEptB8ue170006Ev, symObjAddr: 0x6160, symBinAddr: 0x100009E88, symSize: 0x24 }
  - { offsetInCU: 0x13393, offset: 0x13393, size: 0x8, addend: 0x0, symName: __ZNKSt3__116reverse_iteratorIPNS_12basic_stringIcNS_11char_traitsIcEENS_9allocatorIcEEEEEdeB8ue170006Ev, symObjAddr: 0x6184, symBinAddr: 0x100009EAC, symSize: 0x28 }
  - { offsetInCU: 0x133C6, offset: 0x133C6, size: 0x8, addend: 0x0, symName: __ZNSt3__116reverse_iteratorIPNS_12basic_stringIcNS_11char_traitsIcEENS_9allocatorIcEEEEEC2B8ue170006ES7_, symObjAddr: 0x61AC, symBinAddr: 0x100009ED4, symSize: 0x28 }
  - { offsetInCU: 0x133FD, offset: 0x133FD, size: 0x8, addend: 0x0, symName: __ZNSt3__118__unwrap_iter_implIPNS_12basic_stringIcNS_11char_traitsIcEENS_9allocatorIcEEEELb1EE8__unwrapB8ue170006ES7_, symObjAddr: 0x61D4, symBinAddr: 0x100009EFC, symSize: 0x24 }
  - { offsetInCU: 0x13420, offset: 0x13420, size: 0x8, addend: 0x0, symName: __ZNSt3__118__unwrap_iter_implIPNS_12basic_stringIcNS_11char_traitsIcEENS_9allocatorIcEEEELb1EE8__rewrapB8ue170006ES7_S7_, symObjAddr: 0x61F8, symBinAddr: 0x100009F20, symSize: 0x58 }
  - { offsetInCU: 0x13451, offset: 0x13451, size: 0x8, addend: 0x0, symName: __ZNSt3__16vectorINS_12basic_stringIcNS_11char_traitsIcEENS_9allocatorIcEEEENS4_IS6_EEE21_ConstructTransactionD2B8ue170006Ev, symObjAddr: 0x6250, symBinAddr: 0x100009F78, symSize: 0x20 }
  - { offsetInCU: 0x1347A, offset: 0x1347A, size: 0x8, addend: 0x0, symName: __ZNSt3__128__exception_guard_exceptionsINS_6vectorINS_12basic_stringIcNS_11char_traitsIcEENS_9allocatorIcEEEENS5_IS7_EEE16__destroy_vectorEED2B8ue170006Ev, symObjAddr: 0x6270, symBinAddr: 0x100009F98, symSize: 0x50 }
  - { offsetInCU: 0x134A3, offset: 0x134A3, size: 0x8, addend: 0x0, symName: __ZNSt3__16vectorINS_12basic_stringIcNS_11char_traitsIcEENS_9allocatorIcEEEENS4_IS6_EEE16__destroy_vectorclB8ue170006Ev, symObjAddr: 0x62C0, symBinAddr: 0x100009FE8, symSize: 0x90 }
  - { offsetInCU: 0x134C8, offset: 0x134C8, size: 0x8, addend: 0x0, symName: __ZNSt3__16vectorINS_12basic_stringIcNS_11char_traitsIcEENS_9allocatorIcEEEENS4_IS6_EEE7__clearB8ue170006Ev, symObjAddr: 0x6350, symBinAddr: 0x10000A078, symSize: 0x28 }
  - { offsetInCU: 0x134ED, offset: 0x134ED, size: 0x8, addend: 0x0, symName: __ZNKSt3__16vectorINS_12basic_stringIcNS_11char_traitsIcEENS_9allocatorIcEEEENS4_IS6_EEE17__annotate_deleteB8ue170006Ev, symObjAddr: 0x6378, symBinAddr: 0x10000A0A0, symSize: 0xD4 }
  - { offsetInCU: 0x13512, offset: 0x13512, size: 0x8, addend: 0x0, symName: __ZNSt3__116allocator_traitsINS_9allocatorINS_12basic_stringIcNS_11char_traitsIcEENS1_IcEEEEEEE10deallocateB8ue170006ERS7_PS6_m, symObjAddr: 0x644C, symBinAddr: 0x10000A174, symSize: 0x34 }
  - { offsetInCU: 0x13554, offset: 0x13554, size: 0x8, addend: 0x0, symName: __ZNSt3__16vectorINS_12basic_stringIcNS_11char_traitsIcEENS_9allocatorIcEEEENS4_IS6_EEE22__base_destruct_at_endB8ue170006EPS6_, symObjAddr: 0x6480, symBinAddr: 0x10000A1A8, symSize: 0x8C }
  - { offsetInCU: 0x13597, offset: 0x13597, size: 0x8, addend: 0x0, symName: __ZNKSt3__16vectorINS_12basic_stringIcNS_11char_traitsIcEENS_9allocatorIcEEEENS4_IS6_EEE4sizeB8ue170006Ev, symObjAddr: 0x650C, symBinAddr: 0x10000A234, symSize: 0x28 }
  - { offsetInCU: 0x135BC, offset: 0x135BC, size: 0x8, addend: 0x0, symName: __ZNSt3__19allocatorINS_12basic_stringIcNS_11char_traitsIcEENS0_IcEEEEE10deallocateB8ue170006EPS5_m, symObjAddr: 0x6534, symBinAddr: 0x10000A25C, symSize: 0x44 }
  - { offsetInCU: 0x135FD, offset: 0x135FD, size: 0x8, addend: 0x0, symName: __ZNSt3__16vectorINS_12basic_stringIcNS_11char_traitsIcEENS_9allocatorIcEEEENS4_IS6_EEED2B8ue170006Ev, symObjAddr: 0x6578, symBinAddr: 0x10000A2A0, symSize: 0x40 }
  - { offsetInCU: 0x13626, offset: 0x13626, size: 0x8, addend: 0x0, symName: __ZNSt3__112basic_stringIcNS_11char_traitsIcEENS_9allocatorIcEEEC1B8ue170006EOS5_, symObjAddr: 0x65B8, symBinAddr: 0x10000A2E0, symSize: 0x34 }
  - { offsetInCU: 0x1365E, offset: 0x1365E, size: 0x8, addend: 0x0, symName: __ZNSt3__112basic_stringIcNS_11char_traitsIcEENS_9allocatorIcEEEC2B8ue170006EOS5_, symObjAddr: 0x65EC, symBinAddr: 0x10000A314, symSize: 0x48 }
  - { offsetInCU: 0x13696, offset: 0x13696, size: 0x8, addend: 0x0, symName: __ZNSt3__16vectorIfNS_9allocatorIfEEEC2Em, symObjAddr: 0x6634, symBinAddr: 0x10000A35C, symSize: 0xD4 }
  - { offsetInCU: 0x136E5, offset: 0x136E5, size: 0x8, addend: 0x0, symName: __ZNSt3__117__compressed_pairIPfNS_9allocatorIfEEEC1B8ue170006IDnNS_18__default_init_tagEEEOT_OT0_, symObjAddr: 0x6708, symBinAddr: 0x10000A430, symSize: 0x3C }
  - { offsetInCU: 0x1373C, offset: 0x1373C, size: 0x8, addend: 0x0, symName: __ZNSt3__16vectorIfNS_9allocatorIfEEE16__destroy_vectorC1B8ue170006ERS3_, symObjAddr: 0x6784, symBinAddr: 0x10000A4AC, symSize: 0x34 }
  - { offsetInCU: 0x13774, offset: 0x13774, size: 0x8, addend: 0x0, symName: __ZNSt3__16vectorIfNS_9allocatorIfEEE11__vallocateB8ue170006Em, symObjAddr: 0x67B8, symBinAddr: 0x10000A4E0, symSize: 0xAC }
  - { offsetInCU: 0x137B6, offset: 0x137B6, size: 0x8, addend: 0x0, symName: __ZNSt3__16vectorIfNS_9allocatorIfEEE18__construct_at_endEm, symObjAddr: 0x6864, symBinAddr: 0x10000A58C, symSize: 0xC8 }
  - { offsetInCU: 0x13828, offset: 0x13828, size: 0x8, addend: 0x0, symName: __ZNSt3__128__exception_guard_exceptionsINS_6vectorIfNS_9allocatorIfEEE16__destroy_vectorEE10__completeB8ue170006Ev, symObjAddr: 0x692C, symBinAddr: 0x10000A654, symSize: 0x1C }
  - { offsetInCU: 0x1384D, offset: 0x1384D, size: 0x8, addend: 0x0, symName: __ZNSt3__128__exception_guard_exceptionsINS_6vectorIfNS_9allocatorIfEEE16__destroy_vectorEED1B8ue170006Ev, symObjAddr: 0x6948, symBinAddr: 0x10000A670, symSize: 0x2C }
  - { offsetInCU: 0x13876, offset: 0x13876, size: 0x8, addend: 0x0, symName: __ZNSt3__117__compressed_pairIPfNS_9allocatorIfEEEC2B8ue170006IDnNS_18__default_init_tagEEEOT_OT0_, symObjAddr: 0x6974, symBinAddr: 0x10000A69C, symSize: 0x40 }
  - { offsetInCU: 0x138CD, offset: 0x138CD, size: 0x8, addend: 0x0, symName: __ZNSt3__122__compressed_pair_elemIPfLi0ELb0EEC2B8ue170006IDnvEEOT_, symObjAddr: 0x69B4, symBinAddr: 0x10000A6DC, symSize: 0x1C }
  - { offsetInCU: 0x1390E, offset: 0x1390E, size: 0x8, addend: 0x0, symName: __ZNSt3__122__compressed_pair_elemINS_9allocatorIfEELi1ELb1EEC2B8ue170006ENS_18__default_init_tagE, symObjAddr: 0x69D0, symBinAddr: 0x10000A6F8, symSize: 0x2C }
  - { offsetInCU: 0x13942, offset: 0x13942, size: 0x8, addend: 0x0, symName: __ZNSt3__19allocatorIfEC2B8ue170006Ev, symObjAddr: 0x69FC, symBinAddr: 0x10000A724, symSize: 0x2C }
  - { offsetInCU: 0x1396B, offset: 0x1396B, size: 0x8, addend: 0x0, symName: __ZNSt3__116__non_trivial_ifILb1ENS_9allocatorIfEEEC2B8ue170006Ev, symObjAddr: 0x6A28, symBinAddr: 0x10000A750, symSize: 0x14 }
  - { offsetInCU: 0x13994, offset: 0x13994, size: 0x8, addend: 0x0, symName: __ZNSt3__128__exception_guard_exceptionsINS_6vectorIfNS_9allocatorIfEEE16__destroy_vectorEEC1B8ue170006ES5_, symObjAddr: 0x6A3C, symBinAddr: 0x10000A764, symSize: 0x34 }
  - { offsetInCU: 0x139CB, offset: 0x139CB, size: 0x8, addend: 0x0, symName: __ZNSt3__128__exception_guard_exceptionsINS_6vectorIfNS_9allocatorIfEEE16__destroy_vectorEEC2B8ue170006ES5_, symObjAddr: 0x6A70, symBinAddr: 0x10000A798, symSize: 0x24 }
  - { offsetInCU: 0x13A02, offset: 0x13A02, size: 0x8, addend: 0x0, symName: __ZNSt3__16vectorIfNS_9allocatorIfEEE16__destroy_vectorC2B8ue170006ERS3_, symObjAddr: 0x6A94, symBinAddr: 0x10000A7BC, symSize: 0x20 }
  - { offsetInCU: 0x13A39, offset: 0x13A39, size: 0x8, addend: 0x0, symName: __ZNKSt3__16vectorIfNS_9allocatorIfEEE8max_sizeEv, symObjAddr: 0x6AB4, symBinAddr: 0x10000A7DC, symSize: 0x60 }
  - { offsetInCU: 0x13A60, offset: 0x13A60, size: 0x8, addend: 0x0, symName: __ZNKSt3__16vectorIfNS_9allocatorIfEEE20__throw_length_errorB8ue170006Ev, symObjAddr: 0x6B14, symBinAddr: 0x10000A83C, symSize: 0x1C }
  - { offsetInCU: 0x13A85, offset: 0x13A85, size: 0x8, addend: 0x0, symName: __ZNSt3__16vectorIfNS_9allocatorIfEEE7__allocB8ue170006Ev, symObjAddr: 0x6B70, symBinAddr: 0x10000A898, symSize: 0x28 }
  - { offsetInCU: 0x13AAA, offset: 0x13AAA, size: 0x8, addend: 0x0, symName: __ZNSt3__16vectorIfNS_9allocatorIfEEE9__end_capB8ue170006Ev, symObjAddr: 0x6B98, symBinAddr: 0x10000A8C0, symSize: 0x28 }
  - { offsetInCU: 0x13ACF, offset: 0x13ACF, size: 0x8, addend: 0x0, symName: __ZNKSt3__16vectorIfNS_9allocatorIfEEE14__annotate_newB8ue170006Em, symObjAddr: 0x6BC0, symBinAddr: 0x10000A8E8, symSize: 0xAC }
  - { offsetInCU: 0x13B0D, offset: 0x13B0D, size: 0x8, addend: 0x0, symName: __ZNSt3__116allocator_traitsINS_9allocatorIfEEE8max_sizeB8ue170006IS2_vEEmRKS2_, symObjAddr: 0x6C6C, symBinAddr: 0x10000A994, symSize: 0x24 }
  - { offsetInCU: 0x13B3B, offset: 0x13B3B, size: 0x8, addend: 0x0, symName: __ZNKSt3__16vectorIfNS_9allocatorIfEEE7__allocB8ue170006Ev, symObjAddr: 0x6C90, symBinAddr: 0x10000A9B8, symSize: 0x28 }
  - { offsetInCU: 0x13B60, offset: 0x13B60, size: 0x8, addend: 0x0, symName: __ZNKSt3__19allocatorIfE8max_sizeB8ue170006Ev, symObjAddr: 0x6CB8, symBinAddr: 0x10000A9E0, symSize: 0x14 }
  - { offsetInCU: 0x13B85, offset: 0x13B85, size: 0x8, addend: 0x0, symName: __ZNKSt3__117__compressed_pairIPfNS_9allocatorIfEEE6secondB8ue170006Ev, symObjAddr: 0x6CCC, symBinAddr: 0x10000A9F4, symSize: 0x24 }
  - { offsetInCU: 0x13BAA, offset: 0x13BAA, size: 0x8, addend: 0x0, symName: __ZNKSt3__122__compressed_pair_elemINS_9allocatorIfEELi1ELb1EE5__getB8ue170006Ev, symObjAddr: 0x6CF0, symBinAddr: 0x10000AA18, symSize: 0x14 }
  - { offsetInCU: 0x13BCF, offset: 0x13BCF, size: 0x8, addend: 0x0, symName: __ZNSt3__19allocatorIfE8allocateB8ue170006Em, symObjAddr: 0x6D04, symBinAddr: 0x10000AA2C, symSize: 0x58 }
  - { offsetInCU: 0x13C02, offset: 0x13C02, size: 0x8, addend: 0x0, symName: __ZNSt3__117__compressed_pairIPfNS_9allocatorIfEEE6secondB8ue170006Ev, symObjAddr: 0x6D5C, symBinAddr: 0x10000AA84, symSize: 0x24 }
  - { offsetInCU: 0x13C27, offset: 0x13C27, size: 0x8, addend: 0x0, symName: __ZNSt3__122__compressed_pair_elemINS_9allocatorIfEELi1ELb1EE5__getB8ue170006Ev, symObjAddr: 0x6D80, symBinAddr: 0x10000AAA8, symSize: 0x14 }
  - { offsetInCU: 0x13C4C, offset: 0x13C4C, size: 0x8, addend: 0x0, symName: __ZNSt3__117__compressed_pairIPfNS_9allocatorIfEEE5firstB8ue170006Ev, symObjAddr: 0x6D94, symBinAddr: 0x10000AABC, symSize: 0x24 }
  - { offsetInCU: 0x13C71, offset: 0x13C71, size: 0x8, addend: 0x0, symName: __ZNSt3__122__compressed_pair_elemIPfLi0ELb0EE5__getB8ue170006Ev, symObjAddr: 0x6DB8, symBinAddr: 0x10000AAE0, symSize: 0x14 }
  - { offsetInCU: 0x13C96, offset: 0x13C96, size: 0x8, addend: 0x0, symName: __ZNKSt3__16vectorIfNS_9allocatorIfEEE31__annotate_contiguous_containerB8ue170006EPKvS5_S5_S5_, symObjAddr: 0x6DCC, symBinAddr: 0x10000AAF4, symSize: 0x20 }
  - { offsetInCU: 0x13CEB, offset: 0x13CEB, size: 0x8, addend: 0x0, symName: __ZNKSt3__16vectorIfNS_9allocatorIfEEE4dataB8ue170006Ev, symObjAddr: 0x6DEC, symBinAddr: 0x10000AB14, symSize: 0x28 }
  - { offsetInCU: 0x13D10, offset: 0x13D10, size: 0x8, addend: 0x0, symName: __ZNKSt3__16vectorIfNS_9allocatorIfEEE8capacityB8ue170006Ev, symObjAddr: 0x6E14, symBinAddr: 0x10000AB3C, symSize: 0x40 }
  - { offsetInCU: 0x13D35, offset: 0x13D35, size: 0x8, addend: 0x0, symName: __ZNKSt3__16vectorIfNS_9allocatorIfEEE9__end_capB8ue170006Ev, symObjAddr: 0x6E68, symBinAddr: 0x10000AB90, symSize: 0x28 }
  - { offsetInCU: 0x13D5A, offset: 0x13D5A, size: 0x8, addend: 0x0, symName: __ZNKSt3__117__compressed_pairIPfNS_9allocatorIfEEE5firstB8ue170006Ev, symObjAddr: 0x6E90, symBinAddr: 0x10000ABB8, symSize: 0x24 }
  - { offsetInCU: 0x13D7F, offset: 0x13D7F, size: 0x8, addend: 0x0, symName: __ZNKSt3__122__compressed_pair_elemIPfLi0ELb0EE5__getB8ue170006Ev, symObjAddr: 0x6EB4, symBinAddr: 0x10000ABDC, symSize: 0x14 }
  - { offsetInCU: 0x13DBD, offset: 0x13DBD, size: 0x8, addend: 0x0, symName: __ZNSt3__16vectorIfNS_9allocatorIfEEE21_ConstructTransactionC1B8ue170006ERS3_m, symObjAddr: 0x6EC8, symBinAddr: 0x10000ABF0, symSize: 0x3C }
  - { offsetInCU: 0x13E04, offset: 0x13E04, size: 0x8, addend: 0x0, symName: __ZNSt3__116allocator_traitsINS_9allocatorIfEEE9constructB8ue170006IfJEvEEvRS2_PT_DpOT0_, symObjAddr: 0x6F04, symBinAddr: 0x10000AC2C, symSize: 0x2C }
  - { offsetInCU: 0x13E46, offset: 0x13E46, size: 0x8, addend: 0x0, symName: __ZNSt3__16vectorIfNS_9allocatorIfEEE21_ConstructTransactionD1B8ue170006Ev, symObjAddr: 0x6F30, symBinAddr: 0x10000AC58, symSize: 0x2C }
  - { offsetInCU: 0x13E6F, offset: 0x13E6F, size: 0x8, addend: 0x0, symName: __ZNSt3__16vectorIfNS_9allocatorIfEEE21_ConstructTransactionC2B8ue170006ERS3_m, symObjAddr: 0x6F5C, symBinAddr: 0x10000AC84, symSize: 0x44 }
  - { offsetInCU: 0x13EB6, offset: 0x13EB6, size: 0x8, addend: 0x0, symName: __ZNSt3__19allocatorIfE9constructB8ue170006IfJEEEvPT_DpOT0_, symObjAddr: 0x6FA0, symBinAddr: 0x10000ACC8, symSize: 0x20 }
  - { offsetInCU: 0x13EF7, offset: 0x13EF7, size: 0x8, addend: 0x0, symName: __ZNSt3__16vectorIfNS_9allocatorIfEEE21_ConstructTransactionD2B8ue170006Ev, symObjAddr: 0x6FC0, symBinAddr: 0x10000ACE8, symSize: 0x20 }
  - { offsetInCU: 0x13F20, offset: 0x13F20, size: 0x8, addend: 0x0, symName: __ZNSt3__128__exception_guard_exceptionsINS_6vectorIfNS_9allocatorIfEEE16__destroy_vectorEED2B8ue170006Ev, symObjAddr: 0x6FE0, symBinAddr: 0x10000AD08, symSize: 0x50 }
  - { offsetInCU: 0x13F49, offset: 0x13F49, size: 0x8, addend: 0x0, symName: __ZNSt3__16vectorIfNS_9allocatorIfEEE16__destroy_vectorclB8ue170006Ev, symObjAddr: 0x7030, symBinAddr: 0x10000AD58, symSize: 0x90 }
  - { offsetInCU: 0x13F6E, offset: 0x13F6E, size: 0x8, addend: 0x0, symName: __ZNSt3__16vectorIfNS_9allocatorIfEEE7__clearB8ue170006Ev, symObjAddr: 0x70C0, symBinAddr: 0x10000ADE8, symSize: 0x28 }
  - { offsetInCU: 0x13F93, offset: 0x13F93, size: 0x8, addend: 0x0, symName: __ZNKSt3__16vectorIfNS_9allocatorIfEEE17__annotate_deleteB8ue170006Ev, symObjAddr: 0x70E8, symBinAddr: 0x10000AE10, symSize: 0xB8 }
  - { offsetInCU: 0x13FB8, offset: 0x13FB8, size: 0x8, addend: 0x0, symName: __ZNSt3__116allocator_traitsINS_9allocatorIfEEE10deallocateB8ue170006ERS2_Pfm, symObjAddr: 0x71A0, symBinAddr: 0x10000AEC8, symSize: 0x34 }
  - { offsetInCU: 0x13FFA, offset: 0x13FFA, size: 0x8, addend: 0x0, symName: __ZNSt3__16vectorIfNS_9allocatorIfEEE22__base_destruct_at_endB8ue170006EPf, symObjAddr: 0x71D4, symBinAddr: 0x10000AEFC, symSize: 0x8C }
  - { offsetInCU: 0x1403D, offset: 0x1403D, size: 0x8, addend: 0x0, symName: __ZNSt3__116allocator_traitsINS_9allocatorIfEEE7destroyB8ue170006IfvEEvRS2_PT_, symObjAddr: 0x7260, symBinAddr: 0x10000AF88, symSize: 0x2C }
  - { offsetInCU: 0x1407A, offset: 0x1407A, size: 0x8, addend: 0x0, symName: __ZNSt3__19allocatorIfE7destroyB8ue170006EPf, symObjAddr: 0x728C, symBinAddr: 0x10000AFB4, symSize: 0x14 }
  - { offsetInCU: 0x140AD, offset: 0x140AD, size: 0x8, addend: 0x0, symName: __ZNKSt3__16vectorIfNS_9allocatorIfEEE4sizeB8ue170006Ev, symObjAddr: 0x72A0, symBinAddr: 0x10000AFC8, symSize: 0x28 }
  - { offsetInCU: 0x140D2, offset: 0x140D2, size: 0x8, addend: 0x0, symName: __ZNSt3__19allocatorIfE10deallocateB8ue170006EPfm, symObjAddr: 0x72C8, symBinAddr: 0x10000AFF0, symSize: 0x40 }
  - { offsetInCU: 0x14113, offset: 0x14113, size: 0x8, addend: 0x0, symName: __ZNSt3__16vectorIfNS_9allocatorIfEEED2B8ue170006Ev, symObjAddr: 0x7308, symBinAddr: 0x10000B030, symSize: 0x40 }
  - { offsetInCU: 0x1413C, offset: 0x1413C, size: 0x8, addend: 0x0, symName: __ZNSt3__16vectorIfNS_9allocatorIfEEE11__make_iterB8ue170006EPf, symObjAddr: 0x7348, symBinAddr: 0x10000B070, symSize: 0x30 }
  - { offsetInCU: 0x14170, offset: 0x14170, size: 0x8, addend: 0x0, symName: __ZNSt3__111__wrap_iterIPfEC1B8ue170006ES1_, symObjAddr: 0x7378, symBinAddr: 0x10000B0A0, symSize: 0x34 }
  - { offsetInCU: 0x141A7, offset: 0x141A7, size: 0x8, addend: 0x0, symName: __ZNSt3__111__wrap_iterIPfEC2B8ue170006ES1_, symObjAddr: 0x73AC, symBinAddr: 0x10000B0D4, symSize: 0x20 }
  - { offsetInCU: 0x141DE, offset: 0x141DE, size: 0x8, addend: 0x0, symName: __ZNKSt3__111__wrap_iterIPfEdeB8ue170006Ev, symObjAddr: 0x7400, symBinAddr: 0x10000B128, symSize: 0x18 }
  - { offsetInCU: 0x14203, offset: 0x14203, size: 0x8, addend: 0x0, symName: __ZNSt3__111__wrap_iterIPfEppB8ue170006Ev, symObjAddr: 0x7418, symBinAddr: 0x10000B140, symSize: 0x20 }
  - { offsetInCU: 0x14228, offset: 0x14228, size: 0x8, addend: 0x0, symName: __ZNKSt3__111__wrap_iterIPfE4baseB8ue170006Ev, symObjAddr: 0x7480, symBinAddr: 0x10000B1A8, symSize: 0x18 }
...
